(dp1
S'files'
p2
(dp3
S'env_lib_python2_7_site-packages_werkzeug_routing'
p4
(dp5
S'index'
p6
(dp7
S'html_filename'
p8
S'env_lib_python2_7_site-packages_werkzeug_routing.html'
p9
sS'name'
p10
S'env/lib/python2.7/site-packages/werkzeug/routing'
p11
sS'nums'
p12
ccopy_reg
_reconstructor
p13
(ccoverage.results
Numbers
p14
c__builtin__
object
p15
NtRp16
(dp17
S'n_files'
p18
I1
sS'n_branches'
p19
I0
sS'n_statements'
p20
I580
sS'n_excluded'
p21
I0
sS'n_partial_branches'
p22
I0
sS'n_missing'
p23
I227
sS'n_missing_branches'
p24
I0
sbssS'hash'
p25
S'\x10\xe9\x95\x93\x00\xb9\x13@\x9f\x9dl\x97\xb6 tm'
p26
ssS'env_lib_python2_7_site-packages_werkzeug_exceptions'
p27
(dp28
g6
(dp29
g8
S'env_lib_python2_7_site-packages_werkzeug_exceptions.html'
p30
sg10
S'env/lib/python2.7/site-packages/werkzeug/exceptions'
p31
sg12
g13
(g14
g15
NtRp32
(dp33
g18
I1
sg19
I0
sg20
I159
sg21
I2
sg22
I0
sg23
I27
sg24
I0
sbssg25
S"\xa2yF\xb3\xc4\xbe\xb3\x1aQ\x9ct'C\xcf\x1al"
p34
ssS'env_lib_python2_7_site-packages_sqlalchemy_processors'
p35
(dp36
g6
(dp37
g8
S'env_lib_python2_7_site-packages_sqlalchemy_processors.html'
p38
sg10
S'env/lib/python2.7/site-packages/sqlalchemy/processors'
p39
sg12
g13
(g14
g15
NtRp40
(dp41
g18
I1
sg19
I0
sg20
I83
sg21
I0
sg22
I0
sg23
I68
sg24
I0
sbssg25
S'3\xdaz\x83\xe3\xf8\xe7Ku\xdf\xa5\\S\x80\xf1\xb8'
p42
ssS'env_lib_python2_7_site-packages_sqlalchemy_orm_properties'
p43
(dp44
g6
(dp45
g8
S'env_lib_python2_7_site-packages_sqlalchemy_orm_properties.html'
p46
sg10
S'env/lib/python2.7/site-packages/sqlalchemy/orm/properties'
p47
sg12
g13
(g14
g15
NtRp48
(dp49
g18
I1
sg19
I0
sg20
I81
sg21
I0
sg22
I0
sg23
I30
sg24
I0
sbssg25
S'\xe0.Y\xa2\xf9\x1b\xc8Zv\xd0\xe5\x92\x8c40\xe2'
p50
ssS'env_lib_python2_7_site-packages_jinja2_environment'
p51
(dp52
g6
(dp53
g8
S'env_lib_python2_7_site-packages_jinja2_environment.html'
p54
sg10
S'env/lib/python2.7/site-packages/jinja2/environment'
p55
sg12
g13
(g14
g15
NtRp56
(dp57
g18
I1
sg19
I0
sg20
I488
sg21
I0
sg22
I0
sg23
I280
sg24
I0
sbssg25
S'\xe4\x18C=bc\xd7=\x91\xd4O\xde\x9a\xd6\xbf\xa0'
p58
ssS'env_lib_python2_7_site-packages_sqlalchemy_sql_naming'
p59
(dp60
g6
(dp61
g8
S'env_lib_python2_7_site-packages_sqlalchemy_sql_naming.html'
p62
sg10
S'env/lib/python2.7/site-packages/sqlalchemy/sql/naming'
p63
sg12
g13
(g14
g15
NtRp64
(dp65
g18
I1
sg19
I0
sg20
I84
sg21
I0
sg22
I0
sg23
I49
sg24
I0
sbssg25
S'\xb1\xdf\xebm \xc3\xa1HfI\xdcrt.\xbd\xf3'
p66
ssS'env_lib_python2_7_site-packages_sqlalchemy_orm_session'
p67
(dp68
g6
(dp69
g8
S'env_lib_python2_7_site-packages_sqlalchemy_orm_session.html'
p70
sg10
S'env/lib/python2.7/site-packages/sqlalchemy/orm/session'
p71
sg12
g13
(g14
g15
NtRp72
(dp73
g18
I1
sg19
I0
sg20
I766
sg21
I0
sg22
I0
sg23
I369
sg24
I0
sbssg25
S'an\xb6\xa6i\xb3\xea\xc5<-\x13K\x0ci\xe3\xca'
p74
ssS'config'
p75
(dp76
g6
(dp77
g8
S'config.html'
p78
sg10
g75
sg12
g13
(g14
g15
NtRp79
(dp80
g18
I1
sg19
I0
sg20
I7
sg21
I0
sg22
I0
sg23
I0
sg24
I0
sbssg25
S'v\x9f(\xd6\xd5\x16\x1d\xbcf\xea\xba\xcb!\x98\xe6\x9c'
p81
ssS'env_lib_python2_7_site-packages_sqlalchemy_schema'
p82
(dp83
g6
(dp84
g8
S'env_lib_python2_7_site-packages_sqlalchemy_schema.html'
p85
sg10
S'env/lib/python2.7/site-packages/sqlalchemy/schema'
p86
sg12
g13
(g14
g15
NtRp87
(dp88
g18
I1
sg19
I0
sg20
I5
sg21
I0
sg22
I0
sg23
I0
sg24
I0
sbssg25
S'1\x8d7\xa6\xc8\xfb]\xa2\x0f\x98\x7f/\xa3\xf0\xc1E'
p89
ssS'env_lib_python2_7_site-packages_flask_json'
p90
(dp91
g6
(dp92
g8
S'env_lib_python2_7_site-packages_flask_json.html'
p93
sg10
S'env/lib/python2.7/site-packages/flask/json'
p94
sg12
g13
(g14
g15
NtRp95
(dp96
g18
I1
sg19
I0
sg20
I83
sg21
I0
sg22
I0
sg23
I39
sg24
I0
sbssg25
S'\x03\xdd{q\xb1Zz\xb5\xe9YE-u\xc6\x9d\xbb'
p97
ssS'env_lib_python2_7_site-packages_flask_app'
p98
(dp99
g6
(dp100
g8
S'env_lib_python2_7_site-packages_flask_app.html'
p101
sg10
S'env/lib/python2.7/site-packages/flask/app'
p102
sg12
g13
(g14
g15
NtRp103
(dp104
g18
I1
sg19
I0
sg20
I528
sg21
I0
sg22
I0
sg23
I224
sg24
I0
sbssg25
S'\xb1\xad7\xa9N\x80s\x8d!?\xff,\x83\r\xb8A'
p105
ssS'env_lib_python2_7_site-packages_jinja2_runtime'
p106
(dp107
g6
(dp108
g8
S'env_lib_python2_7_site-packages_jinja2_runtime.html'
p109
sg10
S'env/lib/python2.7/site-packages/jinja2/runtime'
p110
sg12
g13
(g14
g15
NtRp111
(dp112
g18
I1
sg19
I0
sg20
I291
sg21
I0
sg22
I0
sg23
I158
sg24
I0
sbssg25
S'\xf9\x16\x1e\\\xf0\x13f\x8b\xa2\x16fOY,\xc9\x13'
p113
ssS'env_lib_python2_7_site-packages_flask_debughelpers'
p114
(dp115
g6
(dp116
g8
S'env_lib_python2_7_site-packages_flask_debughelpers.html'
p117
sg10
S'env/lib/python2.7/site-packages/flask/debughelpers'
p118
sg12
g13
(g14
g15
NtRp119
(dp120
g18
I1
sg19
I0
sg20
I35
sg21
I0
sg22
I0
sg23
I25
sg24
I0
sbssg25
S'\xb1\x83\xab\xaa\xfbi\x87\xe1\x0515\x06\xb8\xe5\xcd\xa5'
p121
ssS'env_lib_python2_7_site-packages_wtforms_compat'
p122
(dp123
g6
(dp124
g8
S'env_lib_python2_7_site-packages_wtforms_compat.html'
p125
sg10
S'env/lib/python2.7/site-packages/wtforms/compat'
p126
sg12
g13
(g14
g15
NtRp127
(dp128
g18
I1
sg19
I0
sg20
I14
sg21
I0
sg22
I0
sg23
I5
sg24
I0
sbssg25
S']\xa2\x85\xc0\r\xc0\xb6\x8f\x92g\xeb\xff\xcc\\\xedm'
p129
ssS'env_lib_python2_7_site-packages_sqlalchemy_sql_annotation'
p130
(dp131
g6
(dp132
g8
S'env_lib_python2_7_site-packages_sqlalchemy_sql_annotation.html'
p133
sg10
S'env/lib/python2.7/site-packages/sqlalchemy/sql/annotation'
p134
sg12
g13
(g14
g15
NtRp135
(dp136
g18
I1
sg19
I0
sg20
I97
sg21
I0
sg22
I0
sg23
I25
sg24
I0
sbssg25
S'O\xf4,\x12\xa9\xa3\xb0qN\xcf\xa7Zl\xcf\x91\x05'
p137
ssS'env_lib_python2_7_site-packages_sqlalchemy_engine___init__'
p138
(dp139
g6
(dp140
g8
S'env_lib_python2_7_site-packages_sqlalchemy_engine___init__.html'
p141
sg10
S'env/lib/python2.7/site-packages/sqlalchemy/engine/__init__'
p142
sg12
g13
(g14
g15
NtRp143
(dp144
g18
I1
sg19
I0
sg20
I19
sg21
I0
sg22
I0
sg23
I5
sg24
I0
sbssg25
S'\x91\x12\x84\xef\xb8\xe0\xda\xc7\xce\x8c\xdeN\x8c\xb1\xbdN'
p145
ssS'env_lib_python2_7_site-packages_jinja2_bccache'
p146
(dp147
g6
(dp148
g8
S'env_lib_python2_7_site-packages_jinja2_bccache.html'
p149
sg10
S'env/lib/python2.7/site-packages/jinja2/bccache'
p150
sg12
g13
(g14
g15
NtRp151
(dp152
g18
I1
sg19
I0
sg20
I147
sg21
I0
sg22
I0
sg23
I104
sg24
I0
sbssg25
S'r\xee\xabK\x8f\x01\xb0\xfa\xa2rl\xe3)n]\xc4'
p153
ssS'env_lib_python2_7_site-packages_sqlalchemy_orm_sync'
p154
(dp155
g6
(dp156
g8
S'env_lib_python2_7_site-packages_sqlalchemy_orm_sync.html'
p157
sg10
S'env/lib/python2.7/site-packages/sqlalchemy/orm/sync'
p158
sg12
g13
(g14
g15
NtRp159
(dp160
g18
I1
sg19
I0
sg20
I56
sg21
I0
sg22
I0
sg23
I42
sg24
I0
sbssg25
S'~\tc\xbc\x17\x11k\x84Ix\xf0`\xb7\x8d\x9a\xb2'
p161
ssS'env_lib_python2_7_site-packages_sqlalchemy_orm_path_registry'
p162
(dp163
g6
(dp164
g8
S'env_lib_python2_7_site-packages_sqlalchemy_orm_path_registry.html'
p165
sg10
S'env/lib/python2.7/site-packages/sqlalchemy/orm/path_registry'
p166
sg12
g13
(g14
g15
NtRp167
(dp168
g18
I1
sg19
I0
sg20
I129
sg21
I0
sg22
I0
sg23
I46
sg24
I0
sbssg25
S'\x8e_\xac"\x08:m\xfcA\xc4\x1e\x1f\xce\xd8I\xdb'
p169
ssS'forms'
p170
(dp171
g6
(dp172
g8
S'forms.html'
p173
sg10
g170
sg12
g13
(g14
g15
NtRp174
(dp175
g18
I1
sg19
I0
sg20
I17
sg21
I0
sg22
I0
sg23
I0
sg24
I0
sbssg25
S'&\x90D\xdf\xe6\xf9\xcc\xa4\xdc\x8f\xd6\x94\x97\xe5a\xfe'
p176
ssS'env_lib_python2_7_site-packages_jinja2_optimizer'
p177
(dp178
g6
(dp179
g8
S'env_lib_python2_7_site-packages_jinja2_optimizer.html'
p180
sg10
S'env/lib/python2.7/site-packages/jinja2/optimizer'
p181
sg12
g13
(g14
g15
NtRp182
(dp183
g18
I1
sg19
I0
sg20
I31
sg21
I0
sg22
I0
sg23
I8
sg24
I0
sbssg25
S"v\x90\x17@`\xb3wT\x0e\xa4X'\xf4g\x94."
p184
ssS'env_lib_python2_7_site-packages_sqlalchemy_sql_sqltypes'
p185
(dp186
g6
(dp187
g8
S'env_lib_python2_7_site-packages_sqlalchemy_sql_sqltypes.html'
p188
sg10
S'env/lib/python2.7/site-packages/sqlalchemy/sql/sqltypes'
p189
sg12
g13
(g14
g15
NtRp190
(dp191
g18
I1
sg19
I0
sg20
I526
sg21
I0
sg22
I0
sg23
I284
sg24
I0
sbssg25
S'\xf0\xfaT\x85e\xd4\x18H\r,\x83\xaf\xab\r\xce\xf0'
p192
ssS'env_lib_python2_7_site-packages_wtforms_fields___init__'
p193
(dp194
g6
(dp195
g8
S'env_lib_python2_7_site-packages_wtforms_fields___init__.html'
p196
sg10
S'env/lib/python2.7/site-packages/wtforms/fields/__init__'
p197
sg12
g13
(g14
g15
NtRp198
(dp199
g18
I1
sg19
I0
sg20
I3
sg21
I0
sg22
I0
sg23
I0
sg24
I0
sbssg25
S'\x12dE2A}Z\x0f\x89cm\xa4\xb6M\x15:'
p200
ssS'env_lib_python2_7_site-packages_sqlalchemy_event_api'
p201
(dp202
g6
(dp203
g8
S'env_lib_python2_7_site-packages_sqlalchemy_event_api.html'
p204
sg10
S'env/lib/python2.7/site-packages/sqlalchemy/event/api'
p205
sg12
g13
(g14
g15
NtRp206
(dp207
g18
I1
sg19
I0
sg20
I24
sg21
I0
sg22
I0
sg23
I3
sg24
I0
sbssg25
S'^<\xcb\xff~\x97r+?\x11<\xcb\x97wE\x89'
p208
ssS'env_lib_python2_7_site-packages_sqlalchemy_orm_attributes'
p209
(dp210
g6
(dp211
g8
S'env_lib_python2_7_site-packages_sqlalchemy_orm_attributes.html'
p212
sg10
S'env/lib/python2.7/site-packages/sqlalchemy/orm/attributes'
p213
sg12
g13
(g14
g15
NtRp214
(dp215
g18
I1
sg19
I0
sg20
I622
sg21
I0
sg22
I0
sg23
I365
sg24
I0
sbssg25
S'\x12~`@\x0bn\xeb\xf9\x83=J\xe1A\x08\x19q'
p216
ssS'env_lib_python2_7_site-packages_werkzeug_test'
p217
(dp218
g6
(dp219
g8
S'env_lib_python2_7_site-packages_werkzeug_test.html'
p220
sg10
S'env/lib/python2.7/site-packages/werkzeug/test'
p221
sg12
g13
(g14
g15
NtRp222
(dp223
g18
I1
sg19
I0
sg20
I458
sg21
I0
sg22
I0
sg23
I178
sg24
I0
sbssg25
S'\xc7?\xdcB\xa6\x86\x7f)\x9f\x9a\x118`\xbb\\b'
p224
ssS'env_lib_python2_7_site-packages_werkzeug_urls'
p225
(dp226
g6
(dp227
g8
S'env_lib_python2_7_site-packages_werkzeug_urls.html'
p228
sg10
S'env/lib/python2.7/site-packages/werkzeug/urls'
p229
sg12
g13
(g14
g15
NtRp230
(dp231
g18
I1
sg19
I0
sg20
I379
sg21
I0
sg22
I0
sg23
I126
sg24
I0
sbssg25
S'\xd2\x9a\xbf\xa0g\xa3G\xcfK\x8f5\r\xb4< \xcc'
p232
ssS'env_lib_python2_7_site-packages_werkzeug_formparser'
p233
(dp234
g6
(dp235
g8
S'env_lib_python2_7_site-packages_werkzeug_formparser.html'
p236
sg10
S'env/lib/python2.7/site-packages/werkzeug/formparser'
p237
sg12
g13
(g14
g15
NtRp238
(dp239
g18
I1
sg19
I0
sg20
I246
sg21
I4
sg22
I0
sg23
I173
sg24
I0
sbssg25
S'mR{\x9c\xd3\x12\xce_\x1a\x152rIz\xd7\xae'
p240
ssS'env_lib_python2_7_site-packages_sqlalchemy_event___init__'
p241
(dp242
g6
(dp243
g8
S'env_lib_python2_7_site-packages_sqlalchemy_event___init__.html'
p244
sg10
S'env/lib/python2.7/site-packages/sqlalchemy/event/__init__'
p245
sg12
g13
(g14
g15
NtRp246
(dp247
g18
I1
sg19
I0
sg20
I4
sg21
I0
sg22
I0
sg23
I0
sg24
I0
sbssg25
S'\x06\x04<)\x7f\xc4\x8a\x03\x92\xe9\x8a\xa6\xc6QA\x95'
p248
ssS'env_lib_python2_7_site-packages_jinja2_utils'
p249
(dp250
g6
(dp251
g8
S'env_lib_python2_7_site-packages_jinja2_utils.html'
p252
sg10
S'env/lib/python2.7/site-packages/jinja2/utils'
p253
sg12
g13
(g14
g15
NtRp254
(dp255
g18
I1
sg19
I0
sg20
I263
sg21
I0
sg22
I0
sg23
I154
sg24
I0
sbssg25
S"\xcd$\x12\x91s\xe7\xbf\xb8'_w\x87;\xedQ2"
p256
ssS'env_lib_python2_7_site-packages_sqlalchemy_orm_events'
p257
(dp258
g6
(dp259
g8
S'env_lib_python2_7_site-packages_sqlalchemy_orm_events.html'
p260
sg10
S'env/lib/python2.7/site-packages/sqlalchemy/orm/events'
p261
sg12
g13
(g14
g15
NtRp262
(dp263
g18
I1
sg19
I0
sg20
I257
sg21
I0
sg22
I0
sg23
I100
sg24
I0
sbssg25
S'/\xa7\x84\xaf\x1d\x93*\xc3\x16\xb6Z\x80\xa05\x881'
p264
ssS'env_lib_python2_7_site-packages_flask_wtf__compat'
p265
(dp266
g6
(dp267
g8
S'env_lib_python2_7_site-packages_flask_wtf__compat.html'
p268
sg10
S'env/lib/python2.7/site-packages/flask_wtf/_compat'
p269
sg12
g13
(g14
g15
NtRp270
(dp271
g18
I1
sg19
I0
sg20
I10
sg21
I0
sg22
I0
sg23
I5
sg24
I0
sbssg25
S'I\xa3\xb5\x0b\x98\xe4?~/^\xdeK\x8eH\xd1S'
p272
ssS'env_lib_python2_7_site-packages_sqlalchemy_util__collections'
p273
(dp274
g6
(dp275
g8
S'env_lib_python2_7_site-packages_sqlalchemy_util__collections.html'
p276
sg10
S'env/lib/python2.7/site-packages/sqlalchemy/util/_collections'
p277
sg12
g13
(g14
g15
NtRp278
(dp279
g18
I1
sg19
I0
sg20
I550
sg21
I0
sg22
I0
sg23
I257
sg24
I0
sbssg25
S'I\xfd\xdf\xb5T\xef\x07p\xf4s]\x1dEdg\xab'
p280
ssS'env_lib_python2_7_site-packages_sqlalchemy_orm_dynamic'
p281
(dp282
g6
(dp283
g8
S'env_lib_python2_7_site-packages_sqlalchemy_orm_dynamic.html'
p284
sg10
S'env/lib/python2.7/site-packages/sqlalchemy/orm/dynamic'
p285
sg12
g13
(g14
g15
NtRp286
(dp287
g18
I1
sg19
I0
sg20
I198
sg21
I0
sg22
I0
sg23
I144
sg24
I0
sbssg25
S'\xf5\xec\xc4"\xf9\x8e|J\xd2\'m\x97\xec5\xaf\x19'
p288
ssS'env_lib_python2_7_site-packages_sqlalchemy_sql_elements'
p289
(dp290
g6
(dp291
g8
S'env_lib_python2_7_site-packages_sqlalchemy_sql_elements.html'
p292
sg10
S'env/lib/python2.7/site-packages/sqlalchemy/sql/elements'
p293
sg12
g13
(g14
g15
NtRp294
(dp295
g18
I1
sg19
I0
sg20
I972
sg21
I0
sg22
I0
sg23
I425
sg24
I0
sbssg25
S'\xe2\xa5\xdc\x81\xa4G\xacM\xa7\xfeM\x9b\xb5\xb3\x15\xed'
p296
ssS'env_lib_python2_7_site-packages_flask___init__'
p297
(dp298
g6
(dp299
g8
S'env_lib_python2_7_site-packages_flask___init__.html'
p300
sg10
S'env/lib/python2.7/site-packages/flask/__init__'
p301
sg12
g13
(g14
g15
NtRp302
(dp303
g18
I1
sg19
I0
sg20
I18
sg21
I0
sg22
I0
sg23
I0
sg24
I0
sbssg25
S'\xbap\xbb\x0bT{\x1b\xee\xb3R\xfde\x14\xac>O'
p304
ssS'env_lib_python2_7_site-packages_sqlalchemy_engine_result'
p305
(dp306
g6
(dp307
g8
S'env_lib_python2_7_site-packages_sqlalchemy_engine_result.html'
p308
sg10
S'env/lib/python2.7/site-packages/sqlalchemy/engine/result'
p309
sg12
g13
(g14
g15
NtRp310
(dp311
g18
I1
sg19
I0
sg20
I446
sg21
I0
sg22
I0
sg23
I279
sg24
I0
sbssg25
S'Y\x80\xb2Xt\xe15\x90\x00F\xb7\xa0\xfb\xc7\xfe>'
p312
ssS'env_lib_python2_7_site-packages_sqlalchemy_engine_interfaces'
p313
(dp314
g6
(dp315
g8
S'env_lib_python2_7_site-packages_sqlalchemy_engine_interfaces.html'
p316
sg10
S'env/lib/python2.7/site-packages/sqlalchemy/engine/interfaces'
p317
sg12
g13
(g14
g15
NtRp318
(dp319
g18
I1
sg19
I0
sg20
I131
sg21
I0
sg22
I0
sg23
I54
sg24
I0
sbssg25
S'[\xb7~\x06\xc6c\xcegH\xd9p\xcc\x95N\xd9l'
p320
ssS'env_lib_python2_7_site-packages_flask_exthook'
p321
(dp322
g6
(dp323
g8
S'env_lib_python2_7_site-packages_flask_exthook.html'
p324
sg10
S'env/lib/python2.7/site-packages/flask/exthook'
p325
sg12
g13
(g14
g15
NtRp326
(dp327
g18
I1
sg19
I0
sg20
I54
sg21
I0
sg22
I0
sg23
I24
sg24
I0
sbssg25
S'\x81\xa8\x93h\x123\rtT\xd2\xe8\x8ejs\x0f\x12'
p328
ssS'env_lib_python2_7_site-packages_sqlalchemy_orm_strategy_options'
p329
(dp330
g6
(dp331
g8
S'env_lib_python2_7_site-packages_sqlalchemy_orm_strategy_options.html'
p332
sg10
S'env/lib/python2.7/site-packages/sqlalchemy/orm/strategy_options'
p333
sg12
g13
(g14
g15
NtRp334
(dp335
g18
I1
sg19
I0
sg20
I323
sg21
I0
sg22
I0
sg23
I238
sg24
I0
sbssg25
S"'\xb4\xb0N\xce\xe1\x9a9\x0f\x89\xfc]q\x8e\x07'"
p336
ssS'env_lib_python2_7_site-packages_sqlalchemy_dialects___init__'
p337
(dp338
g6
(dp339
g8
S'env_lib_python2_7_site-packages_sqlalchemy_dialects___init__.html'
p340
sg10
S'env/lib/python2.7/site-packages/sqlalchemy/dialects/__init__'
p341
sg12
g13
(g14
g15
NtRp342
(dp343
g18
I1
sg19
I0
sg20
I17
sg21
I0
sg22
I0
sg23
I4
sg24
I0
sbssg25
S'[\x8f<\x9a-A\x16\x15\xe1PVQ\xae\xde\xa1Z'
p344
ssS'env_lib_python2_7_site-packages_sqlalchemy_util___init__'
p345
(dp346
g6
(dp347
g8
S'env_lib_python2_7_site-packages_sqlalchemy_util___init__.html'
p348
sg10
S'env/lib/python2.7/site-packages/sqlalchemy/util/__init__'
p349
sg12
g13
(g14
g15
NtRp350
(dp351
g18
I1
sg19
I0
sg20
I8
sg21
I0
sg22
I0
sg23
I0
sg24
I0
sbssg25
S'\r4\xc4\x13\x9a#\x1c\x15\xb1\x8a\x8f\xfeP\xd5Rj'
p352
ssS'env_lib_python2_7_site-packages_sqlalchemy_orm___init__'
p353
(dp354
g6
(dp355
g8
S'env_lib_python2_7_site-packages_sqlalchemy_orm___init__.html'
p356
sg10
S'env/lib/python2.7/site-packages/sqlalchemy/orm/__init__'
p357
sg12
g13
(g14
g15
NtRp358
(dp359
g18
I1
sg19
I0
sg20
I78
sg21
I0
sg22
I0
sg23
I21
sg24
I0
sbssg25
S'\xb3hR\xf4\\A\xf9GRY\xfc&\xecD\xcfn'
p360
ssS'env_lib_python2_7_site-packages_sqlalchemy_inspection'
p361
(dp362
g6
(dp363
g8
S'env_lib_python2_7_site-packages_sqlalchemy_inspection.html'
p364
sg10
S'env/lib/python2.7/site-packages/sqlalchemy/inspection'
p365
sg12
g13
(g14
g15
NtRp366
(dp367
g18
I1
sg19
I0
sg20
I28
sg21
I0
sg22
I0
sg23
I2
sg24
I0
sbssg25
S'\xe1\xf1\xac<\x08|\xab\xcbpTe\xdboJg\x05'
p368
ssS'env_lib_python2_7_site-packages_werkzeug_wrappers'
p369
(dp370
g6
(dp371
g8
S'env_lib_python2_7_site-packages_werkzeug_wrappers.html'
p372
sg10
S'env/lib/python2.7/site-packages/werkzeug/wrappers'
p373
sg12
g13
(g14
g15
NtRp374
(dp375
g18
I1
sg19
I0
sg20
I567
sg21
I0
sg22
I0
sg23
I240
sg24
I0
sbssg25
S'E\xb8\x9c W\x94R\x96\x9f\xab[\x8bx\x9a\x85\xad'
p376
ssS'env_lib_python2_7_site-packages_sqlalchemy_event_registry'
p377
(dp378
g6
(dp379
g8
S'env_lib_python2_7_site-packages_sqlalchemy_event_registry.html'
p380
sg10
S'env/lib/python2.7/site-packages/sqlalchemy/event/registry'
p381
sg12
g13
(g14
g15
NtRp382
(dp383
g18
I1
sg19
I0
sg20
I130
sg21
I0
sg22
I0
sg23
I66
sg24
I0
sbssg25
S'[\xe1S7\x8d\xc2\xdd\xb7`\x9b\xe5T\xcaq\xd4\xdc'
p384
ssS'env_lib_python2_7_site-packages_werkzeug_utils'
p385
(dp386
g6
(dp387
g8
S'env_lib_python2_7_site-packages_werkzeug_utils.html'
p388
sg10
S'env/lib/python2.7/site-packages/werkzeug/utils'
p389
sg12
g13
(g14
g15
NtRp390
(dp391
g18
I1
sg19
I0
sg20
I240
sg21
I0
sg22
I0
sg23
I149
sg24
I0
sbssg25
S'\xde3\xa0\xe4]\xe2\xc6\xc1\x04\nw\xffQ\xfb\x88|'
p392
ssS'env_lib_python2_7_site-packages_sqlalchemy_sql_default_comparator'
p393
(dp394
g6
(dp395
g8
S'env_lib_python2_7_site-packages_sqlalchemy_sql_default_comparator.html'
p396
sg10
S'env/lib/python2.7/site-packages/sqlalchemy/sql/default_comparator'
p397
sg12
g13
(g14
g15
NtRp398
(dp399
g18
I1
sg19
I0
sg20
I103
sg21
I0
sg22
I0
sg23
I63
sg24
I0
sbssg25
S'\xd7\x15\x02\xc6\xb2E\xee\xa4_\x9c\x8c\x90\x9e\x8b\xfb\xdf'
p400
ssS'env_lib_python2_7_site-packages_sqlalchemy_orm_instrumentation'
p401
(dp402
g6
(dp403
g8
S'env_lib_python2_7_site-packages_sqlalchemy_orm_instrumentation.html'
p404
sg10
S'env/lib/python2.7/site-packages/sqlalchemy/orm/instrumentation'
p405
sg12
g13
(g14
g15
NtRp406
(dp407
g18
I1
sg19
I0
sg20
I239
sg21
I0
sg22
I0
sg23
I98
sg24
I0
sbssg25
S'L_WC\x88\x89\x14\xed*ARr\xfa\x1f\x0ek'
p408
ssS'env_lib_python2_7_site-packages_sqlalchemy_engine_util'
p409
(dp410
g6
(dp411
g8
S'env_lib_python2_7_site-packages_sqlalchemy_engine_util.html'
p412
sg10
S'env/lib/python2.7/site-packages/sqlalchemy/engine/util'
p413
sg12
g13
(g14
g15
NtRp414
(dp415
g18
I1
sg19
I0
sg20
I33
sg21
I0
sg22
I0
sg23
I28
sg24
I0
sbssg25
S'i/F\xe1.\xfeu\x8eyH\x17\x1c\xe1\\]\xf9'
p416
ssS'env_lib_python2_7_site-packages_sqlalchemy_engine_reflection'
p417
(dp418
g6
(dp419
g8
S'env_lib_python2_7_site-packages_sqlalchemy_engine_reflection.html'
p420
sg10
S'env/lib/python2.7/site-packages/sqlalchemy/engine/reflection'
p421
sg12
g13
(g14
g15
NtRp422
(dp423
g18
I1
sg19
I0
sg20
I165
sg21
I0
sg22
I0
sg23
I137
sg24
I0
sbssg25
S'\xe4a\xb1\\9e\xc6-\xc4+C\xbe7>\xf1\x1f'
p424
ssS'env_lib_python2_7_site-packages_sqlalchemy_orm_state'
p425
(dp426
g6
(dp427
g8
S'env_lib_python2_7_site-packages_sqlalchemy_orm_state.html'
p428
sg10
S'env/lib/python2.7/site-packages/sqlalchemy/orm/state'
p429
sg12
g13
(g14
g15
NtRp430
(dp431
g18
I1
sg19
I0
sg20
I255
sg21
I0
sg22
I0
sg23
I115
sg24
I0
sbssg25
S'\x03\xb3Y\x86\xd2\x8e\xd5\x16\xfc:\x81\x8fA\x80\x1dm'
p432
ssS'env_lib_python2_7_site-packages_sqlalchemy_util_queue'
p433
(dp434
g6
(dp435
g8
S'env_lib_python2_7_site-packages_sqlalchemy_util_queue.html'
p436
sg10
S'env/lib/python2.7/site-packages/sqlalchemy/util/queue'
p437
sg12
g13
(g14
g15
NtRp438
(dp439
g18
I1
sg19
I0
sg20
I88
sg21
I0
sg22
I0
sg23
I64
sg24
I0
sbssg25
S'\xba\x84\x1f\x81\x92\xc8\x1aCh\x1a\xe3%e\xbc\x05t'
p440
ssS'env_lib_python2_7_site-packages_flask_sessions'
p441
(dp442
g6
(dp443
g8
S'env_lib_python2_7_site-packages_flask_sessions.html'
p444
sg10
S'env/lib/python2.7/site-packages/flask/sessions'
p445
sg12
g13
(g14
g15
NtRp446
(dp447
g18
I1
sg19
I0
sg20
I143
sg21
I0
sg22
I0
sg23
I29
sg24
I0
sbssg25
S'+\xab\xe2\xfd\xe1,\x9b\x81N\x99\xcb/c\xf9Sk'
p448
ssS'env_lib_python2_7_site-packages_wtforms_fields_simple'
p449
(dp450
g6
(dp451
g8
S'env_lib_python2_7_site-packages_wtforms_fields_simple.html'
p452
sg10
S'env/lib/python2.7/site-packages/wtforms/fields/simple'
p453
sg12
g13
(g14
g15
NtRp454
(dp455
g18
I1
sg19
I0
sg20
I14
sg21
I0
sg22
I0
sg23
I0
sg24
I0
sbssg25
S'\x8c\x14\xe9\\\xf9\xa9$\x0f\x08\xba\xc7\xf4Y\xff;e'
p456
ssS'env_lib_python2_7_site-packages_sqlalchemy_orm_evaluator'
p457
(dp458
g6
(dp459
g8
S'env_lib_python2_7_site-packages_sqlalchemy_orm_evaluator.html'
p460
sg10
S'env/lib/python2.7/site-packages/sqlalchemy/orm/evaluator'
p461
sg12
g13
(g14
g15
NtRp462
(dp463
g18
I1
sg19
I0
sg20
I87
sg21
I0
sg22
I0
sg23
I49
sg24
I0
sbssg25
S'\xfc\xcd\x08\xfeze\x9d\x1f]\xea\xd7?\x058\xa3b'
p464
ssS'env_lib_python2_7_site-packages_flask_blueprints'
p465
(dp466
g6
(dp467
g8
S'env_lib_python2_7_site-packages_flask_blueprints.html'
p468
sg10
S'env/lib/python2.7/site-packages/flask/blueprints'
p469
sg12
g13
(g14
g15
NtRp470
(dp471
g18
I1
sg19
I0
sg20
I156
sg21
I0
sg22
I0
sg23
I118
sg24
I0
sbssg25
S'1D\xa1\x05E/\x93\xfd|\xb3q\xa6\x8a\xa6\xcc9'
p472
ssS'env_lib_python2_7_site-packages_sqlalchemy_dialects_sqlite_pysqlite'
p473
(dp474
g6
(dp475
g8
S'env_lib_python2_7_site-packages_sqlalchemy_dialects_sqlite_pysqlite.html'
p476
sg10
S'env/lib/python2.7/site-packages/sqlalchemy/dialects/sqlite/pysqlite'
p477
sg12
g13
(g14
g15
NtRp478
(dp479
g18
I1
sg19
I0
sg20
I67
sg21
I0
sg22
I0
sg23
I16
sg24
I0
sbssg25
S'\xa6az\xc3g\xa7\x1djK22+\x8bU\x01\xd8'
p480
ssS'env_lib_python2_7_site-packages_flask__compat'
p481
(dp482
g6
(dp483
g8
S'env_lib_python2_7_site-packages_flask__compat.html'
p484
sg10
S'env/lib/python2.7/site-packages/flask/_compat'
p485
sg12
g13
(g14
g15
NtRp486
(dp487
g18
I1
sg19
I0
sg20
I38
sg21
I0
sg22
I0
sg23
I20
sg24
I0
sbssg25
S's\xcd\x8a\xd4\xc2\xb9\x888\x0c\x97\xf4\x02\xc7\xcf\xf3\xeb'
p488
ssS'env_lib_python2_7_site-packages_flask_wtf_recaptcha_validators'
p489
(dp490
g6
(dp491
g8
S'env_lib_python2_7_site-packages_flask_wtf_recaptcha_validators.html'
p492
sg10
S'env/lib/python2.7/site-packages/flask_wtf/recaptcha/validators'
p493
sg12
g13
(g14
g15
NtRp494
(dp495
g18
I1
sg19
I0
sg20
I45
sg21
I0
sg22
I0
sg23
I32
sg24
I0
sbssg25
S'%[\xa4b\xa8\xeb}o\xf5M0\xd8\xd3\xea\xda\xf7'
p496
ssS'env_lib_python2_7_site-packages_markupsafe___init__'
p497
(dp498
g6
(dp499
g8
S'env_lib_python2_7_site-packages_markupsafe___init__.html'
p500
sg10
S'env/lib/python2.7/site-packages/markupsafe/__init__'
p501
sg12
g13
(g14
g15
NtRp502
(dp503
g18
I1
sg19
I0
sg20
I155
sg21
I0
sg22
I0
sg23
I85
sg24
I0
sbssg25
S'\xea:\x15\xe9\xe7H\x96\xef\xf0\x1aI\xc6\x93k\xf7\xa5'
p504
ssS'env_lib_python2_7_site-packages_sqlalchemy_sql___init__'
p505
(dp506
g6
(dp507
g8
S'env_lib_python2_7_site-packages_sqlalchemy_sql___init__.html'
p508
sg10
S'env/lib/python2.7/site-packages/sqlalchemy/sql/__init__'
p509
sg12
g13
(g14
g15
NtRp510
(dp511
g18
I1
sg19
I0
sg20
I15
sg21
I0
sg22
I0
sg23
I0
sg24
I0
sbssg25
S'\xe68mT\xea\xcb\xd0\xecJ\xa5\x88\xea\xb9\xd8\xcdh'
p512
ssS'env_lib_python2_7_site-packages_sqlalchemy_event_legacy'
p513
(dp514
g6
(dp515
g8
S'env_lib_python2_7_site-packages_sqlalchemy_event_legacy.html'
p516
sg10
S'env/lib/python2.7/site-packages/sqlalchemy/event/legacy'
p517
sg12
g13
(g14
g15
NtRp518
(dp519
g18
I1
sg19
I0
sg20
I56
sg21
I0
sg22
I0
sg23
I18
sg24
I0
sbssg25
S'\xaa\x01[\xbb\xac\xbb\x94N\xd1Z\xc2\xe6\x0c\x05\xa4\xd8'
p520
ssS'env_lib_python2_7_site-packages_sqlalchemy_exc'
p521
(dp522
g6
(dp523
g8
S'env_lib_python2_7_site-packages_sqlalchemy_exc.html'
p524
sg10
S'env/lib/python2.7/site-packages/sqlalchemy/exc'
p525
sg12
g13
(g14
g15
NtRp526
(dp527
g18
I1
sg19
I0
sg20
I104
sg21
I0
sg22
I0
sg23
I29
sg24
I0
sbssg25
S',\xb7i\xff\x17I\x0e`\xb9\xbc\xf4\x9f\tf\x80:'
p528
ssS'env_lib_python2_7_site-packages_sqlalchemy_sql_visitors'
p529
(dp530
g6
(dp531
g8
S'env_lib_python2_7_site-packages_sqlalchemy_sql_visitors.html'
p532
sg10
S'env/lib/python2.7/site-packages/sqlalchemy/sql/visitors'
p533
sg12
g13
(g14
g15
NtRp534
(dp535
g18
I1
sg19
I0
sg20
I132
sg21
I0
sg22
I0
sg23
I34
sg24
I0
sbssg25
S'\xc3\xa6\xfc\x88\xf8\xba%\xc4\xfd,\xf7mM\x98\xa0^'
p536
ssS'env_lib_python2_7_site-packages_jinja2_compiler'
p537
(dp538
g6
(dp539
g8
S'env_lib_python2_7_site-packages_jinja2_compiler.html'
p540
sg10
S'env/lib/python2.7/site-packages/jinja2/compiler'
p541
sg12
g13
(g14
g15
NtRp542
(dp543
g18
I1
sg19
I0
sg20
I1030
sg21
I0
sg22
I0
sg23
I534
sg24
I0
sbssg25
S'\xf6\x11\xc3\x1a\xfeYf\x9f\xa5\x15\xc2\x80S=\x12\xe6'
p544
ssS'env_lib_python2_7_site-packages_jinja2_exceptions'
p545
(dp546
g6
(dp547
g8
S'env_lib_python2_7_site-packages_jinja2_exceptions.html'
p548
sg10
S'env/lib/python2.7/site-packages/jinja2/exceptions'
p549
sg12
g13
(g14
g15
NtRp550
(dp551
g18
I1
sg19
I0
sg20
I70
sg21
I0
sg22
I0
sg23
I47
sg24
I0
sbssg25
S'\xf3z\xf9\xb0i}\xb8\xf8a\x05\xda\n?\x1c\xfb\x1d'
p552
ssS'env_lib_python2_7_site-packages_sqlalchemy_util_langhelpers'
p553
(dp554
g6
(dp555
g8
S'env_lib_python2_7_site-packages_sqlalchemy_util_langhelpers.html'
p556
sg10
S'env/lib/python2.7/site-packages/sqlalchemy/util/langhelpers'
p557
sg12
g13
(g14
g15
NtRp558
(dp559
g18
I1
sg19
I0
sg20
I629
sg21
I0
sg22
I0
sg23
I267
sg24
I0
sbssg25
S'[3\xae\xe4\t\x1d\xee\xe5\x1d\x0e\x19\x8a\xa1\xec\xf0\xcd'
p560
ssS'env_lib_python2_7_site-packages_sqlalchemy_orm_scoping'
p561
(dp562
g6
(dp563
g8
S'env_lib_python2_7_site-packages_sqlalchemy_orm_scoping.html'
p564
sg10
S'env/lib/python2.7/site-packages/sqlalchemy/orm/scoping'
p565
sg12
g13
(g14
g15
NtRp566
(dp567
g18
I1
sg19
I0
sg20
I63
sg21
I0
sg22
I0
sg23
I26
sg24
I0
sbssg25
S'\xfe\x97+\x94%\x9a\xbd\xea\xe7\xae\xd8(A\xa2\xa0z'
p568
ssS'env_lib_python2_7_site-packages_sqlalchemy_orm_query'
p569
(dp570
g6
(dp571
g8
S'env_lib_python2_7_site-packages_sqlalchemy_orm_query.html'
p572
sg10
S'env/lib/python2.7/site-packages/sqlalchemy/orm/query'
p573
sg12
g13
(g14
g15
NtRp574
(dp575
g18
I1
sg19
I0
sg20
I1089
sg21
I0
sg22
I0
sg23
I649
sg24
I0
sbssg25
S'\xdf\xd3\xfd5o\x8e\xfc[\xee"\x0b\xe5\xc5\xd8$\x9e'
p576
ssS'env_lib_python2_7_site-packages_sqlalchemy_orm_loading'
p577
(dp578
g6
(dp579
g8
S'env_lib_python2_7_site-packages_sqlalchemy_orm_loading.html'
p580
sg10
S'env/lib/python2.7/site-packages/sqlalchemy/orm/loading'
p581
sg12
g13
(g14
g15
NtRp582
(dp583
g18
I1
sg19
I0
sg20
I308
sg21
I0
sg22
I0
sg23
I146
sg24
I0
sbssg25
S'o:\x90\x9fc\xef\x89\xa1#oq\x98\x80+\xe3\xbf'
p584
ssS'env_lib_python2_7_site-packages_itsdangerous'
p585
(dp586
g6
(dp587
g8
S'env_lib_python2_7_site-packages_itsdangerous.html'
p588
sg10
S'env/lib/python2.7/site-packages/itsdangerous'
p589
sg12
g13
(g14
g15
NtRp590
(dp591
g18
I1
sg19
I0
sg20
I413
sg21
I0
sg22
I0
sg23
I167
sg24
I0
sbssg25
S'\x91 \x8f\xfd\xb3\xa1\xfc5J1\x0c\xcb%\xdb+K'
p592
ssS'env_lib_python2_7_site-packages_sqlalchemy_dialects_sqlite___init__'
p593
(dp594
g6
(dp595
g8
S'env_lib_python2_7_site-packages_sqlalchemy_dialects_sqlite___init__.html'
p596
sg10
S'env/lib/python2.7/site-packages/sqlalchemy/dialects/sqlite/__init__'
p597
sg12
g13
(g14
g15
NtRp598
(dp599
g18
I1
sg19
I0
sg20
I4
sg21
I0
sg22
I0
sg23
I0
sg24
I0
sbssg25
S'\x89] \xb3\xcb\xf8\xe0hFayk>\xa5\xef\xc4'
p600
ssS'env_lib_python2_7_site-packages_sqlalchemy_orm_util'
p601
(dp602
g6
(dp603
g8
S'env_lib_python2_7_site-packages_sqlalchemy_orm_util.html'
p604
sg10
S'env/lib/python2.7/site-packages/sqlalchemy/orm/util'
p605
sg12
g13
(g14
g15
NtRp606
(dp607
g18
I1
sg19
I0
sg20
I281
sg21
I0
sg22
I0
sg23
I212
sg24
I0
sbssg25
S'%6H7"\xb0\x96\xb4\xc1\x0e\xe1!r\xb0\xe0\xfc'
p608
ssS'env_lib_python2_7_site-packages_flask_signals'
p609
(dp610
g6
(dp611
g8
S'env_lib_python2_7_site-packages_flask_signals.html'
p612
sg10
S'env/lib/python2.7/site-packages/flask/signals'
p613
sg12
g13
(g14
g15
NtRp614
(dp615
g18
I1
sg19
I0
sg20
I28
sg21
I0
sg22
I0
sg23
I2
sg24
I0
sbssg25
S'\x00\xe95\xfbqr\xe7\xe9k\xed\xaaT\xc5\xe1\xa5L'
p616
ssS'env_lib_python2_7_site-packages_jinja2_tests'
p617
(dp618
g6
(dp619
g8
S'env_lib_python2_7_site-packages_jinja2_tests.html'
p620
sg10
S'env/lib/python2.7/site-packages/jinja2/tests'
p621
sg12
g13
(g14
g15
NtRp622
(dp623
g18
I1
sg19
I0
sg20
I47
sg21
I0
sg22
I0
sg23
I24
sg24
I0
sbssg25
S'\xb1[}x+R\x19\xd1\xe4\xc4\xf3\xcb"5\xe8\xfd'
p624
ssS'env_lib_python2_7_site-packages_jinja2___init__'
p625
(dp626
g6
(dp627
g8
S'env_lib_python2_7_site-packages_jinja2___init__.html'
p628
sg10
S'env/lib/python2.7/site-packages/jinja2/__init__'
p629
sg12
g13
(g14
g15
NtRp630
(dp631
g18
I1
sg19
I0
sg20
I11
sg21
I0
sg22
I0
sg23
I0
sg24
I0
sbssg25
S'\\\r\x9b(\x8d\x88\x89\xaaaX\xe8\xfc\x15~=!'
p632
ssS'env_lib_python2_7_site-packages_sqlalchemy_events'
p633
(dp634
g6
(dp635
g8
S'env_lib_python2_7_site-packages_sqlalchemy_events.html'
p636
sg10
S'env/lib/python2.7/site-packages/sqlalchemy/events'
p637
sg12
g13
(g14
g15
NtRp638
(dp639
g18
I1
sg19
I0
sg20
I95
sg21
I0
sg22
I0
sg23
I23
sg24
I0
sbssg25
S'\xb5\r\x88\xa1U\xe3=\xbac_\xdc\xc9\xba\xda\xe0\xa3'
p640
ssS'env_lib_python2_7_site-packages_flask_wtf_recaptcha_fields'
p641
(dp642
g6
(dp643
g8
S'env_lib_python2_7_site-packages_flask_wtf_recaptcha_fields.html'
p644
sg10
S'env/lib/python2.7/site-packages/flask_wtf/recaptcha/fields'
p645
sg12
g13
(g14
g15
NtRp646
(dp647
g18
I1
sg19
I0
sg20
I10
sg21
I0
sg22
I0
sg23
I2
sg24
I0
sbssg25
S'b\xa9\xc8#Ez,\xaf\x89\x9c\x1b\x90f\xdd\x81>'
p648
ssS'env_lib_python2_7_site-packages_sqlalchemy_util_compat'
p649
(dp650
g6
(dp651
g8
S'env_lib_python2_7_site-packages_sqlalchemy_util_compat.html'
p652
sg10
S'env/lib/python2.7/site-packages/sqlalchemy/util/compat'
p653
sg12
g13
(g14
g15
NtRp654
(dp655
g18
I1
sg19
I0
sg20
I173
sg21
I0
sg22
I0
sg23
I95
sg24
I0
sbssg25
S'\xdf2\x9d#:\x07T\xa5\xc8X\x00\x9d\x01u\xfcu'
p656
ssS'env_lib_python2_7_site-packages_flask_wtf___init__'
p657
(dp658
g6
(dp659
g8
S'env_lib_python2_7_site-packages_flask_wtf___init__.html'
p660
sg10
S'env/lib/python2.7/site-packages/flask_wtf/__init__'
p661
sg12
g13
(g14
g15
NtRp662
(dp663
g18
I1
sg19
I0
sg20
I6
sg21
I0
sg22
I0
sg23
I0
sg24
I0
sbssg25
S'\xd5\xec{9\x18O\xf7gi\x7f\xdc\x8cx#\x18\x82'
p664
ssS'env_lib_python2_7_site-packages_flask_wrappers'
p665
(dp666
g6
(dp667
g8
S'env_lib_python2_7_site-packages_flask_wrappers.html'
p668
sg10
S'env/lib/python2.7/site-packages/flask/wrappers'
p669
sg12
g13
(g14
g15
NtRp670
(dp671
g18
I1
sg19
I0
sg20
I62
sg21
I0
sg22
I0
sg23
I32
sg24
I0
sbssg25
S'\x95\xe222\xaf\x83v\xb1\x13\x991\x96\xe2\xf4\x05\x17'
p672
ssS'env_lib_python2_7_site-packages_flask_ctx'
p673
(dp674
g6
(dp675
g8
S'env_lib_python2_7_site-packages_flask_ctx.html'
p676
sg10
S'env/lib/python2.7/site-packages/flask/ctx'
p677
sg12
g13
(g14
g15
NtRp678
(dp679
g18
I1
sg19
I0
sg20
I140
sg21
I0
sg22
I0
sg23
I39
sg24
I0
sbssg25
S'a\xd2+\xee\x9a\xbc\xb15\xac\xfc\xba\x85\xb0j;<'
p680
ssS'env_lib_python2_7_site-packages_flask_templating'
p681
(dp682
g6
(dp683
g8
S'env_lib_python2_7_site-packages_flask_templating.html'
p684
sg10
S'env/lib/python2.7/site-packages/flask/templating'
p685
sg12
g13
(g14
g15
NtRp686
(dp687
g18
I1
sg19
I0
sg20
I78
sg21
I0
sg22
I0
sg23
I34
sg24
I0
sbssg25
S'B\xd9X\x88\xedF\x9e\xea\xbbR\xdb\xb8\x8e\xd0\x89\x9b'
p688
ssS'env_lib_python2_7_site-packages_wtforms_widgets___init__'
p689
(dp690
g6
(dp691
g8
S'env_lib_python2_7_site-packages_wtforms_widgets___init__.html'
p692
sg10
S'env/lib/python2.7/site-packages/wtforms/widgets/__init__'
p693
sg12
g13
(g14
g15
NtRp694
(dp695
g18
I1
sg19
I0
sg20
I2
sg21
I0
sg22
I0
sg23
I0
sg24
I0
sbssg25
S'\xb7\xdd\xd5\x82\x17\xa4\xfeh?\xf5\xe8\xe5\xe6\x8blQ'
p696
ssS'env_lib_python2_7_site-packages_sqlalchemy_orm_unitofwork'
p697
(dp698
g6
(dp699
g8
S'env_lib_python2_7_site-packages_sqlalchemy_orm_unitofwork.html'
p700
sg10
S'env/lib/python2.7/site-packages/sqlalchemy/orm/unitofwork'
p701
sg12
g13
(g14
g15
NtRp702
(dp703
g18
I1
sg19
I0
sg20
I325
sg21
I0
sg22
I0
sg23
I155
sg24
I0
sbssg25
S'\x11\x86#=\xa6mkANb\x8f\xaa:\xb8h\x0c'
p704
ssS'env_lib_python2_7_site-packages_sqlalchemy_orm_base'
p705
(dp706
g6
(dp707
g8
S'env_lib_python2_7_site-packages_sqlalchemy_orm_base.html'
p708
sg10
S'env/lib/python2.7/site-packages/sqlalchemy/orm/base'
p709
sg12
g13
(g14
g15
NtRp710
(dp711
g18
I1
sg19
I0
sg20
I145
sg21
I0
sg22
I0
sg23
I39
sg24
I0
sbssg25
S'zRmS\xcd\x8fi\xc6\x11\xb6\xed/\xf1\x97a\xd4'
p712
ssS'env_lib_python2_7_site-packages_sqlalchemy_orm_identity'
p713
(dp714
g6
(dp715
g8
S'env_lib_python2_7_site-packages_sqlalchemy_orm_identity.html'
p716
sg10
S'env/lib/python2.7/site-packages/sqlalchemy/orm/identity'
p717
sg12
g13
(g14
g15
NtRp718
(dp719
g18
I1
sg19
I0
sg20
I164
sg21
I0
sg22
I0
sg23
I83
sg24
I0
sbssg25
S'e\xd5\xe7\x1c\xe4\xc7a\x0f\x1a\xe50\x87N\x8f\xf3k'
p720
ssS'env_lib_python2_7_site-packages_sqlalchemy_sql_compiler'
p721
(dp722
g6
(dp723
g8
S'env_lib_python2_7_site-packages_sqlalchemy_sql_compiler.html'
p724
sg10
S'env/lib/python2.7/site-packages/sqlalchemy/sql/compiler'
p725
sg12
g13
(g14
g15
NtRp726
(dp727
g18
I1
sg19
I0
sg20
I1371
sg21
I0
sg22
I0
sg23
I679
sg24
I0
sbssg25
S'\x1cO\x8bq\x92V\x1f\x8a\x16\xda\xf4#)\xb1L\x10'
p728
ssS'env_lib_python2_7_site-packages_sqlalchemy_sql_schema'
p729
(dp730
g6
(dp731
g8
S'env_lib_python2_7_site-packages_sqlalchemy_sql_schema.html'
p732
sg10
S'env/lib/python2.7/site-packages/sqlalchemy/sql/schema'
p733
sg12
g13
(g14
g15
NtRp734
(dp735
g18
I1
sg19
I0
sg20
I1020
sg21
I0
sg22
I0
sg23
I515
sg24
I0
sbssg25
S'U.\x96M\xbb8W$\x81\xc5\x974\xa4\x82\xf5f'
p736
ssS'env_lib_python2_7_site-packages_sqlalchemy_ext_declarative___init__'
p737
(dp738
g6
(dp739
g8
S'env_lib_python2_7_site-packages_sqlalchemy_ext_declarative___init__.html'
p740
sg10
S'env/lib/python2.7/site-packages/sqlalchemy/ext/declarative/__init__'
p741
sg12
g13
(g14
g15
NtRp742
(dp743
g18
I1
sg19
I0
sg20
I3
sg21
I0
sg22
I0
sg23
I0
sg24
I0
sbssg25
S'm\xd18\xcc\x83j\x13\x98\x9cS\x01\x00\x07)\xa8/'
p744
ssS'env_lib_python2_7_site-packages_flask_wtf_i18n'
p745
(dp746
g6
(dp747
g8
S'env_lib_python2_7_site-packages_flask_wtf_i18n.html'
p748
sg10
S'env/lib/python2.7/site-packages/flask_wtf/i18n'
p749
sg12
g13
(g14
g15
NtRp750
(dp751
g18
I1
sg19
I0
sg20
I39
sg21
I0
sg22
I0
sg23
I36
sg24
I0
sbssg25
S"\xfd,\n/'\xd3eK\x1dg\xfb&w\xe9\x9b\xca"
p752
ssS'env_lib_python2_7_site-packages_wtforms_ext_csrf___init__'
p753
(dp754
g6
(dp755
g8
S'env_lib_python2_7_site-packages_wtforms_ext_csrf___init__.html'
p756
sg10
S'env/lib/python2.7/site-packages/wtforms/ext/csrf/__init__'
p757
sg12
g13
(g14
g15
NtRp758
(dp759
g18
I1
sg19
I0
sg20
I1
sg21
I0
sg22
I0
sg23
I0
sg24
I0
sbssg25
S'\x00dH\xb0G\xd3\x88\xe75\x1e?\xd3W\x82\x93o'
p760
ssS'env_lib_python2_7_site-packages_werkzeug_http'
p761
(dp762
g6
(dp763
g8
S'env_lib_python2_7_site-packages_werkzeug_http.html'
p764
sg10
S'env/lib/python2.7/site-packages/werkzeug/http'
p765
sg12
g13
(g14
g15
NtRp766
(dp767
g18
I1
sg19
I0
sg20
I373
sg21
I4
sg22
I0
sg23
I260
sg24
I0
sbssg25
S'+ \x94P\xe5s\xa2\x15\x0c5\xf8l\xb5Tx\x8d'
p768
ssS'env_lib_python2_7_site-packages_flask_ext___init__'
p769
(dp770
g6
(dp771
g8
S'env_lib_python2_7_site-packages_flask_ext___init__.html'
p772
sg10
S'env/lib/python2.7/site-packages/flask/ext/__init__'
p773
sg12
g13
(g14
g15
NtRp774
(dp775
g18
I1
sg19
I0
sg20
I7
sg21
I0
sg22
I0
sg23
I0
sg24
I0
sbssg25
S'\xc7\xd4\x92\x9b\xb0\xb4h\xf1Rs\xd6\xf8vw\xdd\x07'
p776
ssS'env_lib_python2_7_site-packages_sqlalchemy_ext___init__'
p777
(dp778
g6
(dp779
g8
S'env_lib_python2_7_site-packages_sqlalchemy_ext___init__.html'
p780
sg10
S'env/lib/python2.7/site-packages/sqlalchemy/ext/__init__'
p781
sg12
g13
(g14
g15
NtRp782
(dp783
g18
I1
sg19
I0
sg20
I0
sg21
I0
sg22
I0
sg23
I0
sg24
I0
sbssg25
S'p\x8f\xc8j\xa2\xf3*\x9c\xbe\xe8\xc0\x9e\xba0\xd4\xec'
p784
ssS'env_lib_python2_7_site-packages_flask_wtf_recaptcha_widgets'
p785
(dp786
g6
(dp787
g8
S'env_lib_python2_7_site-packages_flask_wtf_recaptcha_widgets.html'
p788
sg10
S'env/lib/python2.7/site-packages/flask_wtf/recaptcha/widgets'
p789
sg12
g13
(g14
g15
NtRp790
(dp791
g18
I1
sg19
I0
sg20
I38
sg21
I0
sg22
I0
sg23
I22
sg24
I0
sbssg25
S'\xb0\x9d03\xb46&\xc5\x89\xd1d\x1bV\x18\x9cH'
p792
ssS'env_lib_python2_7_site-packages_sqlalchemy_engine_strategies'
p793
(dp794
g6
(dp795
g8
S'env_lib_python2_7_site-packages_sqlalchemy_engine_strategies.html'
p796
sg10
S'env/lib/python2.7/site-packages/sqlalchemy/engine/strategies'
p797
sg12
g13
(g14
g15
NtRp798
(dp799
g18
I1
sg19
I0
sg20
I130
sg21
I0
sg22
I0
sg23
I46
sg24
I0
sbssg25
S'\x8eal\xb8f\xf4l\xc3X\x85\x04\xb7kjh\x94'
p800
ssS'env_lib_python2_7_site-packages_sqlalchemy_sql_ddl'
p801
(dp802
g6
(dp803
g8
S'env_lib_python2_7_site-packages_sqlalchemy_sql_ddl.html'
p804
sg10
S'env/lib/python2.7/site-packages/sqlalchemy/sql/ddl'
p805
sg12
g13
(g14
g15
NtRp806
(dp807
g18
I1
sg19
I0
sg20
I245
sg21
I0
sg22
I0
sg23
I79
sg24
I0
sbssg25
S'\x81\x130u~\xce\x80\x1f\x17\xf34V\x01d\x03L'
p808
ssS'env_lib_python2_7_site-packages_werkzeug___init__'
p809
(dp810
g6
(dp811
g8
S'env_lib_python2_7_site-packages_werkzeug___init__.html'
p812
sg10
S'env/lib/python2.7/site-packages/werkzeug/__init__'
p813
sg12
g13
(g14
g15
NtRp814
(dp815
g18
I1
sg19
I0
sg20
I29
sg21
I0
sg22
I0
sg23
I4
sg24
I0
sbssg25
S'\xf2]\xce9\xfcC\x89\xa0\x92R\\%\x04\xfbi\x1f'
p816
ssS'env_lib_python2_7_site-packages_sqlalchemy_event_base'
p817
(dp818
g6
(dp819
g8
S'env_lib_python2_7_site-packages_sqlalchemy_event_base.html'
p820
sg10
S'env/lib/python2.7/site-packages/sqlalchemy/event/base'
p821
sg12
g13
(g14
g15
NtRp822
(dp823
g18
I1
sg19
I0
sg20
I88
sg21
I0
sg22
I0
sg23
I20
sg24
I0
sbssg25
S'5W\xcb\xb6V\x9b\xcd\x8f1\xa8\xfe\xea\xf7\x93\xf4\\'
p824
ssS'env_lib_python2_7_site-packages_jinja2_lexer'
p825
(dp826
g6
(dp827
g8
S'env_lib_python2_7_site-packages_jinja2_lexer.html'
p828
sg10
S'env/lib/python2.7/site-packages/jinja2/lexer'
p829
sg12
g13
(g14
g15
NtRp830
(dp831
g18
I1
sg19
I0
sg20
I346
sg21
I0
sg22
I0
sg23
I80
sg24
I0
sbssg25
S'\x81\xe4\xbf\x163\x1c\xa6\xfb\xe60\xd9[\xdb\xa2\x13\n'
p832
ssS'env_lib_python2_7_site-packages_sqlalchemy_pool'
p833
(dp834
g6
(dp835
g8
S'env_lib_python2_7_site-packages_sqlalchemy_pool.html'
p836
sg10
S'env/lib/python2.7/site-packages/sqlalchemy/pool'
p837
sg12
g13
(g14
g15
NtRp838
(dp839
g18
I1
sg19
I0
sg20
I506
sg21
I0
sg22
I0
sg23
I292
sg24
I0
sbssg25
S'\xc5\xda\xcc\xe8WQ]\xbf\xae\xa1\xa1\xbe(\xc3)\x18'
p840
ssS'env_lib_python2_7_site-packages_sqlalchemy_engine_default'
p841
(dp842
g6
(dp843
g8
S'env_lib_python2_7_site-packages_sqlalchemy_engine_default.html'
p844
sg10
S'env/lib/python2.7/site-packages/sqlalchemy/engine/default'
p845
sg12
g13
(g14
g15
NtRp846
(dp847
g18
I1
sg19
I0
sg20
I481
sg21
I0
sg22
I0
sg23
I187
sg24
I0
sbssg25
S'\xa6\xe0a\xce(n\xa5|\xde\x04\xc8\xfd\x85\xffl\x1d'
p848
ssS'env_lib_python2_7_site-packages_sqlalchemy_sql_base'
p849
(dp850
g6
(dp851
g8
S'env_lib_python2_7_site-packages_sqlalchemy_sql_base.html'
p852
sg10
S'env/lib/python2.7/site-packages/sqlalchemy/sql/base'
p853
sg12
g13
(g14
g15
NtRp854
(dp855
g18
I1
sg19
I0
sg20
I271
sg21
I0
sg22
I0
sg23
I138
sg24
I0
sbssg25
S'\t\x1c\x1f7\xf1_\x99tal\xb5h\x8b\xb2\x89\x0f'
p856
ssS'env_lib_python2_7_site-packages_sqlalchemy_sql_util'
p857
(dp858
g6
(dp859
g8
S'env_lib_python2_7_site-packages_sqlalchemy_sql_util.html'
p860
sg10
S'env/lib/python2.7/site-packages/sqlalchemy/sql/util'
p861
sg12
g13
(g14
g15
NtRp862
(dp863
g18
I1
sg19
I0
sg20
I287
sg21
I0
sg22
I0
sg23
I196
sg24
I0
sbssg25
S'\xbc\xab\xa3)zm\x10\x7f2\x8a\x19\x93\x8f4s?'
p864
ssS'env_lib_python2_7_site-packages_wtforms_validators'
p865
(dp866
g6
(dp867
g8
S'env_lib_python2_7_site-packages_wtforms_validators.html'
p868
sg10
S'env/lib/python2.7/site-packages/wtforms/validators'
p869
sg12
g13
(g14
g15
NtRp870
(dp871
g18
I1
sg19
I0
sg20
I225
sg21
I0
sg22
I0
sg23
I125
sg24
I0
sbssg25
S'\xa2\x83\xc1$\x06\xfe\xef\x9f\xa0,\xb3\xbe\x16NPP'
p872
ssS'env_lib_python2_7_site-packages_sqlalchemy_types'
p873
(dp874
g6
(dp875
g8
S'env_lib_python2_7_site-packages_sqlalchemy_types.html'
p876
sg10
S'env/lib/python2.7/site-packages/sqlalchemy/types'
p877
sg12
g13
(g14
g15
NtRp878
(dp879
g18
I1
sg19
I0
sg20
I4
sg21
I0
sg22
I0
sg23
I0
sg24
I0
sbssg25
S"r\xd0\x1e\x80\x1e\xa3\x9c\xd0x'9\xc9\xc7\xed\xb0\x99"
p880
ssS'env_lib_python2_7_site-packages_wtforms_form'
p881
(dp882
g6
(dp883
g8
S'env_lib_python2_7_site-packages_wtforms_form.html'
p884
sg10
S'env/lib/python2.7/site-packages/wtforms/form'
p885
sg12
g13
(g14
g15
NtRp886
(dp887
g18
I1
sg19
I0
sg20
I122
sg21
I0
sg22
I0
sg23
I40
sg24
I0
sbssg25
S'\xa7\xf5\xe9\x9a\xef\x81$\xdcG\xecU\xf9\xc1\xbd\xa0\xfa'
p888
ssS'env_lib_python2_7_site-packages_flask_module'
p889
(dp890
g6
(dp891
g8
S'env_lib_python2_7_site-packages_flask_module.html'
p892
sg10
S'env/lib/python2.7/site-packages/flask/module'
p893
sg12
g13
(g14
g15
NtRp894
(dp895
g18
I1
sg19
I0
sg20
I13
sg21
I0
sg22
I0
sg23
I7
sg24
I0
sbssg25
S'\xf0\xdb\x0fZ4%l\x89\x9c]\xb9\xf7v\xe7@;'
p896
ssS'env_lib_python2_7_site-packages_jinja2_filters'
p897
(dp898
g6
(dp899
g8
S'env_lib_python2_7_site-packages_jinja2_filters.html'
p900
sg10
S'env/lib/python2.7/site-packages/jinja2/filters'
p901
sg12
g13
(g14
g15
NtRp902
(dp903
g18
I1
sg19
I0
sg20
I343
sg21
I0
sg22
I0
sg23
I265
sg24
I0
sbssg25
S'\xef#\xc6\xad\x92\x96v^M\x9d\xf0\xfeR\xcal\xc5'
p904
ssS'env_lib_python2_7_site-packages_sqlalchemy_sql_type_api'
p905
(dp906
g6
(dp907
g8
S'env_lib_python2_7_site-packages_sqlalchemy_sql_type_api.html'
p908
sg10
S'env/lib/python2.7/site-packages/sqlalchemy/sql/type_api'
p909
sg12
g13
(g14
g15
NtRp910
(dp911
g18
I1
sg19
I0
sg20
I260
sg21
I0
sg22
I0
sg23
I122
sg24
I0
sbssg25
S'\xf8\xb5L@\x99\x0eci\r\xca\x985Cvt&'
p912
ssS'env_lib_python2_7_site-packages_werkzeug_datastructures'
p913
(dp914
g6
(dp915
g8
S'env_lib_python2_7_site-packages_werkzeug_datastructures.html'
p916
sg10
S'env/lib/python2.7/site-packages/werkzeug/datastructures'
p917
sg12
g13
(g14
g15
NtRp918
(dp919
g18
I1
sg19
I0
sg20
I1281
sg21
I0
sg22
I0
sg23
I766
sg24
I0
sbssg25
S'\x13\x8b\x9d\xf2,\x9e\x028p\x1f\xe6t\x8c+\xf2V'
p920
ssS'env_lib_python2_7_site-packages_sqlalchemy_ext_declarative_base'
p921
(dp922
g6
(dp923
g8
S'env_lib_python2_7_site-packages_sqlalchemy_ext_declarative_base.html'
p924
sg10
S'env/lib/python2.7/site-packages/sqlalchemy/ext/declarative/base'
p925
sg12
g13
(g14
g15
NtRp926
(dp927
g18
I1
sg19
I0
sg20
I278
sg21
I0
sg22
I0
sg23
I129
sg24
I0
sbssg25
S'\x1a\xa0\xed\xfc\x13\x7f\x85\x16Q\xedT\x08s\xfe\x137'
p928
ssS'env_lib_python2_7_site-packages_sqlalchemy_orm_strategies'
p929
(dp930
g6
(dp931
g8
S'env_lib_python2_7_site-packages_sqlalchemy_orm_strategies.html'
p932
sg10
S'env/lib/python2.7/site-packages/sqlalchemy/orm/strategies'
p933
sg12
g13
(g14
g15
NtRp934
(dp935
g18
I1
sg19
I0
sg20
I629
sg21
I0
sg22
I0
sg23
I444
sg24
I0
sbssg25
S'?M\xba\x89c\xcb-@\xab\x0e\xc9<i\xa8R\xe2'
p936
ssS'env_lib_python2_7_site-packages_sqlalchemy_util_topological'
p937
(dp938
g6
(dp939
g8
S'env_lib_python2_7_site-packages_sqlalchemy_util_topological.html'
p940
sg10
S'env/lib/python2.7/site-packages/sqlalchemy/util/topological'
p941
sg12
g13
(g14
g15
NtRp942
(dp943
g18
I1
sg19
I0
sg20
I46
sg21
I0
sg22
I0
sg23
I8
sg24
I0
sbssg25
S'\x7f\x0c\xfd_\x97\xc8\xa4\xa9\x10\x8e)\x9cm)\x8a`'
p944
ssS'env_lib_python2_7_site-packages_sqlalchemy_ext_declarative_clsregistry'
p945
(dp946
g6
(dp947
g8
S'env_lib_python2_7_site-packages_sqlalchemy_ext_declarative_clsregistry.html'
p948
sg10
S'env/lib/python2.7/site-packages/sqlalchemy/ext/declarative/clsregistry'
p949
sg12
g13
(g14
g15
NtRp950
(dp951
g18
I1
sg19
I0
sg20
I179
sg21
I0
sg22
I0
sg23
I76
sg24
I0
sbssg25
S'\xbf*\xf7\x93\xaf\xb2\x9c\x04r\xd9\x8cx[}\xeb\x90'
p952
ssS'env_lib_python2_7_site-packages_jinja2_parser'
p953
(dp954
g6
(dp955
g8
S'env_lib_python2_7_site-packages_jinja2_parser.html'
p956
sg10
S'env/lib/python2.7/site-packages/jinja2/parser'
p957
sg12
g13
(g14
g15
NtRp958
(dp959
g18
I1
sg19
I0
sg20
I646
sg21
I0
sg22
I0
sg23
I331
sg24
I0
sbssg25
S'\xae]|\x99\xcd\x88\x93\x01 o\x03B\xf2\x8a\x17U'
p960
ssS'env_lib_python2_7_site-packages_sqlalchemy_engine_base'
p961
(dp962
g6
(dp963
g8
S'env_lib_python2_7_site-packages_sqlalchemy_engine_base.html'
p964
sg10
S'env/lib/python2.7/site-packages/sqlalchemy/engine/base'
p965
sg12
g13
(g14
g15
NtRp966
(dp967
g18
I1
sg19
I0
sg20
I651
sg21
I0
sg22
I0
sg23
I293
sg24
I0
sbssg25
S'\x8f\x9c@\xbb\x897E\xdcq\xc9\xa9:\x12\x94\xc4\xf6'
p968
ssS'env_lib_python2_7_site-packages_flask_globals'
p969
(dp970
g6
(dp971
g8
S'env_lib_python2_7_site-packages_flask_globals.html'
p972
sg10
S'env/lib/python2.7/site-packages/flask/globals'
p973
sg12
g13
(g14
g15
NtRp974
(dp975
g18
I1
sg19
I0
sg20
I24
sg21
I0
sg22
I0
sg23
I6
sg24
I0
sbssg25
S'\x91\x03\x82\xe3\xc1,$\x9d\xd3{\x81\xf4v]\xbe\x08'
p976
ssS'env_lib_python2_7_site-packages_sqlalchemy_orm_descriptor_props'
p977
(dp978
g6
(dp979
g8
S'env_lib_python2_7_site-packages_sqlalchemy_orm_descriptor_props.html'
p980
sg10
S'env/lib/python2.7/site-packages/sqlalchemy/orm/descriptor_props'
p981
sg12
g13
(g14
g15
NtRp982
(dp983
g18
I1
sg19
I0
sg20
I242
sg21
I0
sg22
I0
sg23
I191
sg24
I0
sbssg25
S'\xfd\x91y\xdaW\xb4R\xb6\xe0\xab\x8f\xb7\x18\xde\xac\r'
p984
ssS'env_lib_python2_7_site-packages_werkzeug__internal'
p985
(dp986
g6
(dp987
g8
S'env_lib_python2_7_site-packages_werkzeug__internal.html'
p988
sg10
S'env/lib/python2.7/site-packages/werkzeug/_internal'
p989
sg12
g13
(g14
g15
NtRp990
(dp991
g18
I1
sg19
I0
sg20
I235
sg21
I0
sg22
I0
sg23
I139
sg24
I0
sbssg25
S'\xb7\x06\x96\xef\xce\x02|"\x96\xf8U:\x8a!\x1b\x86'
p992
ssS'env_lib_python2_7_site-packages_wtforms_ext_csrf_fields'
p993
(dp994
g6
(dp995
g8
S'env_lib_python2_7_site-packages_wtforms_ext_csrf_fields.html'
p996
sg10
S'env/lib/python2.7/site-packages/wtforms/ext/csrf/fields'
p997
sg12
g13
(g14
g15
NtRp998
(dp999
g18
I1
sg19
I0
sg20
I7
sg21
I0
sg22
I0
sg23
I1
sg24
I0
sbssg25
S'a\xbeb\xa19%\x0enZZ\xc0\x81\t\x92?\xe7'
p1000
ssS'env_lib_python2_7_site-packages_werkzeug_local'
p1001
(dp1002
g6
(dp1003
g8
S'env_lib_python2_7_site-packages_werkzeug_local.html'
p1004
sg10
S'env/lib/python2.7/site-packages/werkzeug/local'
p1005
sg12
g13
(g14
g15
NtRp1006
(dp1007
g18
I1
sg19
I0
sg20
I210
sg21
I0
sg22
I0
sg23
I64
sg24
I0
sbssg25
S'f\x8d\x10\x13&\xdd\x05\x9f\xc0\x90\xfb\xa5\xe2\x9c\xb2K'
p1008
ssS'env_lib_python2_7_site-packages_wtforms_widgets_core'
p1009
(dp1010
g6
(dp1011
g8
S'env_lib_python2_7_site-packages_wtforms_widgets_core.html'
p1012
sg10
S'env/lib/python2.7/site-packages/wtforms/widgets/core'
p1013
sg12
g13
(g14
g15
NtRp1014
(dp1015
g18
I1
sg19
I0
sg20
I117
sg21
I0
sg22
I0
sg23
I39
sg24
I0
sbssg25
S"9v\x1c'4\xdb\t\x1e\r\x00\xbc,@\x8e\x96\xfa"
p1016
ssS'env_lib_python2_7_site-packages_wtforms_ext___init__'
p1017
(dp1018
g6
(dp1019
g8
S'env_lib_python2_7_site-packages_wtforms_ext___init__.html'
p1020
sg10
S'env/lib/python2.7/site-packages/wtforms/ext/__init__'
p1021
sg12
g13
(g14
g15
NtRp1022
(dp1023
g18
I1
sg19
I0
sg20
I0
sg21
I0
sg22
I0
sg23
I0
sg24
I0
sbssg25
S'\xca\xf5\x9f\x7f\x88\xdfa\x831|T\x1d\xbc}\xa5v'
p1024
ssS'env_lib_python2_7_site-packages_jinja2_loaders'
p1025
(dp1026
g6
(dp1027
g8
S'env_lib_python2_7_site-packages_jinja2_loaders.html'
p1028
sg10
S'env/lib/python2.7/site-packages/jinja2/loaders'
p1029
sg12
g13
(g14
g15
NtRp1030
(dp1031
g18
I1
sg19
I0
sg20
I221
sg21
I0
sg22
I0
sg23
I136
sg24
I0
sbssg25
S'\x83&\xd8\xa0D\xd5\xfe\xbf\xb7@\xe28D\xf6\xc7]'
p1032
ssS'env_lib_python2_7_site-packages_sqlalchemy_sql_functions'
p1033
(dp1034
g6
(dp1035
g8
S'env_lib_python2_7_site-packages_sqlalchemy_sql_functions.html'
p1036
sg10
S'env/lib/python2.7/site-packages/sqlalchemy/sql/functions'
p1037
sg12
g13
(g14
g15
NtRp1038
(dp1039
g18
I1
sg19
I0
sg20
I170
sg21
I0
sg22
I0
sg23
I69
sg24
I0
sbssg25
S'\x18\x98*OX\xbcy.\xc0\x96F\xaaqc\xb6\x0c'
p1040
ssS'env_lib_python2_7_site-packages_flask_config'
p1041
(dp1042
g6
(dp1043
g8
S'env_lib_python2_7_site-packages_flask_config.html'
p1044
sg10
S'env/lib/python2.7/site-packages/flask/config'
p1045
sg12
g13
(g14
g15
NtRp1046
(dp1047
g18
I1
sg19
I0
sg20
I52
sg21
I0
sg22
I0
sg23
I21
sg24
I0
sbssg25
S'\xcc\x9bxG\xcdU\x94at\x14\x86\xa3\x82\xcd&\x1b'
p1048
ssS'env_lib_python2_7_site-packages_flask_wtf_recaptcha___init__'
p1049
(dp1050
g6
(dp1051
g8
S'env_lib_python2_7_site-packages_flask_wtf_recaptcha___init__.html'
p1052
sg10
S'env/lib/python2.7/site-packages/flask_wtf/recaptcha/__init__'
p1053
sg12
g13
(g14
g15
NtRp1054
(dp1055
g18
I1
sg19
I0
sg20
I3
sg21
I0
sg22
I0
sg23
I0
sg24
I0
sbssg25
S'4\x19\xb3FA\xfcS%\x10\xd6\x1b\xfa\x01\x97\xd2\xb2'
p1056
ssS'env_lib_python2_7_site-packages_sqlalchemy_interfaces'
p1057
(dp1058
g6
(dp1059
g8
S'env_lib_python2_7_site-packages_sqlalchemy_interfaces.html'
p1060
sg10
S'env/lib/python2.7/site-packages/sqlalchemy/interfaces'
p1061
sg12
g13
(g14
g15
NtRp1062
(dp1063
g18
I1
sg19
I0
sg20
I69
sg21
I0
sg22
I0
sg23
I47
sg24
I0
sbssg25
S'+\x0b\x0e8\xe1\xe0s\x94\x0e\xa7~W)\x97;\x1f'
p1064
ssS'env_lib_python2_7_site-packages_sqlalchemy_engine_threadlocal'
p1065
(dp1066
g6
(dp1067
g8
S'env_lib_python2_7_site-packages_sqlalchemy_engine_threadlocal.html'
p1068
sg10
S'env/lib/python2.7/site-packages/sqlalchemy/engine/threadlocal'
p1069
sg12
g13
(g14
g15
NtRp1070
(dp1071
g18
I1
sg19
I0
sg20
I80
sg21
I0
sg22
I0
sg23
I55
sg24
I0
sbssg25
S'\xae\x91\xbb(O\xde>q\x82]ky]\x87\x80\xd5'
p1072
ssS'env_lib_python2_7_site-packages_jinja2__compat'
p1073
(dp1074
g6
(dp1075
g8
S'env_lib_python2_7_site-packages_jinja2__compat.html'
p1076
sg10
S'env/lib/python2.7/site-packages/jinja2/_compat'
p1077
sg12
g13
(g14
g15
NtRp1078
(dp1079
g18
I1
sg19
I0
sg20
I98
sg21
I0
sg22
I0
sg23
I35
sg24
I0
sbssg25
S'@u\t\x99\xbd\xbah\xdc\xa2\x9a\x18b\x12T\x89\x93'
p1080
ssS'env_lib_python2_7_site-packages_sqlalchemy_orm_dependency'
p1081
(dp1082
g6
(dp1083
g8
S'env_lib_python2_7_site-packages_sqlalchemy_orm_dependency.html'
p1084
sg10
S'env/lib/python2.7/site-packages/sqlalchemy/orm/dependency'
p1085
sg12
g13
(g14
g15
NtRp1086
(dp1087
g18
I1
sg19
I0
sg20
I478
sg21
I0
sg22
I0
sg23
I371
sg24
I0
sbssg25
S'\xe6\xb8\xb8}\x1e\xbb\xc7(\r\x94\xc5\x04\xff\xef\xcf\xe9'
p1088
ssS'env_lib_python2_7_site-packages_sqlalchemy_engine_url'
p1089
(dp1090
g6
(dp1091
g8
S'env_lib_python2_7_site-packages_sqlalchemy_engine_url.html'
p1092
sg10
S'env/lib/python2.7/site-packages/sqlalchemy/engine/url'
p1093
sg12
g13
(g14
g15
NtRp1094
(dp1095
g18
I1
sg19
I0
sg20
I110
sg21
I0
sg22
I0
sg23
I56
sg24
I0
sbssg25
S'\xd0$\x01\x0c=\xcdR\xa9l\xd1\x04\xa8\xf2\xe8i\x11'
p1096
ssS'env_lib_python2_7_site-packages_sqlalchemy_ext_declarative_api'
p1097
(dp1098
g6
(dp1099
g8
S'env_lib_python2_7_site-packages_sqlalchemy_ext_declarative_api.html'
p1100
sg10
S'env/lib/python2.7/site-packages/sqlalchemy/ext/declarative/api'
p1101
sg12
g13
(g14
g15
NtRp1102
(dp1103
g18
I1
sg19
I0
sg20
I118
sg21
I0
sg22
I0
sg23
I70
sg24
I0
sbssg25
S'\xe9\xae\x81,\t9`\x0b\xe6\\TH\xbc\x88\x15\xcf'
p1104
ssS'env_lib_python2_7_site-packages_flask_wtf_csrf'
p1105
(dp1106
g6
(dp1107
g8
S'env_lib_python2_7_site-packages_flask_wtf_csrf.html'
p1108
sg10
S'env/lib/python2.7/site-packages/flask_wtf/csrf'
p1109
sg12
g13
(g14
g15
NtRp1110
(dp1111
g18
I1
sg19
I0
sg20
I114
sg21
I0
sg22
I0
sg23
I95
sg24
I0
sbssg25
S'Z\xd5`\xd1\xc6Q\xf2Y\x97m\xc6\\\xd5\x0bq\x9a'
p1112
ssS'env_lib_python2_7_site-packages_wtforms_ext_csrf_form'
p1113
(dp1114
g6
(dp1115
g8
S'env_lib_python2_7_site-packages_wtforms_ext_csrf_form.html'
p1116
sg10
S'env/lib/python2.7/site-packages/wtforms/ext/csrf/form'
p1117
sg12
g13
(g14
g15
NtRp1118
(dp1119
g18
I1
sg19
I0
sg20
I18
sg21
I0
sg22
I0
sg23
I6
sg24
I0
sbssg25
S'\x97g\xdd\\_\xc8\xc1\xc2j\xca\xc74$\xcd2\xf4'
p1120
ssS'env_lib_python2_7_site-packages_flask_sqlalchemy__compat'
p1121
(dp1122
g6
(dp1123
g8
S'env_lib_python2_7_site-packages_flask_sqlalchemy__compat.html'
p1124
sg10
S'env/lib/python2.7/site-packages/flask_sqlalchemy/_compat'
p1125
sg12
g13
(g14
g15
NtRp1126
(dp1127
g18
I1
sg19
I0
sg20
I16
sg21
I0
sg22
I0
sg23
I6
sg24
I0
sbssg25
S'\xa5\xa8y\x10{\xe5\xfcm\x0f\xc6\xd4\x1a\xf0\x90Jh'
p1128
ssS'env_lib_python2_7_site-packages_wtforms___init__'
p1129
(dp1130
g6
(dp1131
g8
S'env_lib_python2_7_site-packages_wtforms___init__.html'
p1132
sg10
S'env/lib/python2.7/site-packages/wtforms/__init__'
p1133
sg12
g13
(g14
g15
NtRp1134
(dp1135
g18
I1
sg19
I0
sg20
I5
sg21
I0
sg22
I0
sg23
I0
sg24
I0
sbssg25
S'\x96\xfa\xa5*\x1e<\xfb\xf9\x9a\xb8\xe2\xb8[\xcb\x13\x93'
p1136
ssS'env_lib_python2_7_site-packages_flask_wtf_form'
p1137
(dp1138
g6
(dp1139
g8
S'env_lib_python2_7_site-packages_flask_wtf_form.html'
p1140
sg10
S'env/lib/python2.7/site-packages/flask_wtf/form'
p1141
sg12
g13
(g14
g15
NtRp1142
(dp1143
g18
I1
sg19
I0
sg20
I77
sg21
I0
sg22
I0
sg23
I34
sg24
I0
sbssg25
S"\xde\xe9U'\xac\xc4\x03e\x95\xdc\xacG\xff\x1d\xae\x91"
p1144
ssS'env_lib_python2_7_site-packages_sqlalchemy_orm_persistence'
p1145
(dp1146
g6
(dp1147
g8
S'env_lib_python2_7_site-packages_sqlalchemy_orm_persistence.html'
p1148
sg10
S'env/lib/python2.7/site-packages/sqlalchemy/orm/persistence'
p1149
sg12
g13
(g14
g15
NtRp1150
(dp1151
g18
I1
sg19
I0
sg20
I464
sg21
I0
sg22
I0
sg23
I246
sg24
I0
sbssg25
S'|}\x11N\xb8\xf1g;\xb3\xf3\x8d\xf6\xd8\xbb\xc3Q'
p1152
ssS'env_lib_python2_7_site-packages_sqlalchemy_dialects_sqlite_base'
p1153
(dp1154
g6
(dp1155
g8
S'env_lib_python2_7_site-packages_sqlalchemy_dialects_sqlite_base.html'
p1156
sg10
S'env/lib/python2.7/site-packages/sqlalchemy/dialects/sqlite/base'
p1157
sg12
g13
(g14
g15
NtRp1158
(dp1159
g18
I1
sg19
I0
sg20
I423
sg21
I0
sg22
I0
sg23
I245
sg24
I0
sbssg25
S'\x8e\xb3\xac\xcdm\xc6\x97\xc4\x18w\xe3\xd7\x1c\xfa\xa5\xd8'
p1160
ssS'env_lib_python2_7_site-packages_sqlalchemy_orm_deprecated_interfaces'
p1161
(dp1162
g6
(dp1163
g8
S'env_lib_python2_7_site-packages_sqlalchemy_orm_deprecated_interfaces.html'
p1164
sg10
S'env/lib/python2.7/site-packages/sqlalchemy/orm/deprecated_interfaces'
p1165
sg12
g13
(g14
g15
NtRp1166
(dp1167
g18
I1
sg19
I0
sg20
I91
sg21
I0
sg22
I0
sg23
I50
sg24
I0
sbssg25
S'\xb8\x80\x01O\x94\x1cu\x7f\xa8c\xaa\xceK\\\x0b\xd1'
p1168
ssS'env_lib_python2_7_site-packages_sqlalchemy_sql_selectable'
p1169
(dp1170
g6
(dp1171
g8
S'env_lib_python2_7_site-packages_sqlalchemy_sql_selectable.html'
p1172
sg10
S'env/lib/python2.7/site-packages/sqlalchemy/sql/selectable'
p1173
sg12
g13
(g14
g15
NtRp1174
(dp1175
g18
I1
sg19
I0
sg20
I886
sg21
I0
sg22
I0
sg23
I497
sg24
I0
sbssg25
S'\x87\x04=\x93\x93\xcdrR#8\x94K\xe8m\xbd\x1e'
p1176
ssS'env_lib_python2_7_site-packages_flask_testing'
p1177
(dp1178
g6
(dp1179
g8
S'env_lib_python2_7_site-packages_flask_testing.html'
p1180
sg10
S'env/lib/python2.7/site-packages/flask/testing'
p1181
sg12
g13
(g14
g15
NtRp1182
(dp1183
g18
I1
sg19
I0
sg20
I58
sg21
I0
sg22
I0
sg23
I31
sg24
I0
sbssg25
S'\xd9\xf3_\xa9\x18t\xef\xa2\xc5q@\xd3\xfe@\xd4c'
p1184
ssS'env_lib_python2_7_site-packages_sqlalchemy_sql_expression'
p1185
(dp1186
g6
(dp1187
g8
S'env_lib_python2_7_site-packages_sqlalchemy_sql_expression.html'
p1188
sg10
S'env/lib/python2.7/site-packages/sqlalchemy/sql/expression'
p1189
sg12
g13
(g14
g15
NtRp1190
(dp1191
g18
I1
sg19
I0
sg20
I67
sg21
I0
sg22
I0
sg23
I0
sg24
I0
sbssg25
S'\xca\x89\xde\x9c\xa1\xa5\xa6%\xc5}\xd1\x0b\xab\xa3\xc7\x1a'
p1192
ssS'env_lib_python2_7_site-packages_wtforms_fields_core'
p1193
(dp1194
g6
(dp1195
g8
S'env_lib_python2_7_site-packages_wtforms_fields_core.html'
p1196
sg10
S'env/lib/python2.7/site-packages/wtforms/fields/core'
p1197
sg12
g13
(g14
g15
NtRp1198
(dp1199
g18
I1
sg19
I0
sg20
I484
sg21
I0
sg22
I0
sg23
I236
sg24
I0
sbssg25
S'\x90\x15\xbc\xaf:\xd9\xc4\xb1]\xd8\xebZS\x1c\xf2\xea'
p1200
ssS'views'
p1201
(dp1202
g6
(dp1203
S'html_filename'
p1204
S'views.html'
p1205
sS'name'
p1206
S'views'
p1207
sS'nums'
p1208
g13
(g14
g15
NtRp1209
(dp1210
g18
I1
sg19
I0
sg20
I91
sg21
I0
sg22
I0
sg23
I4
sg24
I0
sbssg25
S'q\xbe\x19\xaaP\xdau\xcf\xa9dr\x9b\xa6\x9d\x1b\xbe'
p1211
ssS'env_lib_python2_7_site-packages_jinja2_visitor'
p1212
(dp1213
g6
(dp1214
g8
S'env_lib_python2_7_site-packages_jinja2_visitor.html'
p1215
sg10
S'env/lib/python2.7/site-packages/jinja2/visitor'
p1216
sg12
g13
(g14
g15
NtRp1217
(dp1218
g18
I1
sg19
I0
sg20
I40
sg21
I0
sg22
I0
sg23
I8
sg24
I0
sbssg25
S'+&9m\xe7\x0f\xabq\x87\xaf;EL\x84#i'
p1219
ssS'env_lib_python2_7_site-packages_sqlalchemy_orm_interfaces'
p1220
(dp1221
g6
(dp1222
g8
S'env_lib_python2_7_site-packages_sqlalchemy_orm_interfaces.html'
p1223
sg10
S'env/lib/python2.7/site-packages/sqlalchemy/orm/interfaces'
p1224
sg12
g13
(g14
g15
NtRp1225
(dp1226
g18
I1
sg19
I0
sg20
I149
sg21
I0
sg22
I0
sg23
I33
sg24
I0
sbssg25
S'\xbc\xb0\xf0\xa5\xba\x8c\x83\x0e|$\x82\x0e\xf3:66'
p1227
ssS'env_lib_python2_7_site-packages_sqlalchemy_util_deprecations'
p1228
(dp1229
g6
(dp1230
g8
S'env_lib_python2_7_site-packages_sqlalchemy_util_deprecations.html'
p1231
sg10
S'env/lib/python2.7/site-packages/sqlalchemy/util/deprecations'
p1232
sg12
g13
(g14
g15
NtRp1233
(dp1234
g18
I1
sg19
I0
sg20
I66
sg21
I0
sg22
I0
sg23
I7
sg24
I0
sbssg25
S'\xa0x\x8e>\xf8\xe9\xbb\x88\xc9\x89uh-R\x02E'
p1235
ssS'test'
p1236
(dp1237
g6
(dp1238
g1204
S'test.html'
p1239
sg1206
S'test'
p1240
sg1208
g13
(g14
g15
NtRp1241
(dp1242
g18
I1
sg19
I0
sg20
I119
sg21
I0
sg22
I0
sg23
I0
sg24
I0
sbssg25
S'\x84\xdb\xd0\t6`\\3\xfdI&\xb1\xfb<\x17\xa1'
p1243
ssS'env_lib_python2_7_site-packages_markupsafe__compat'
p1244
(dp1245
g6
(dp1246
g8
S'env_lib_python2_7_site-packages_markupsafe__compat.html'
p1247
sg10
S'env/lib/python2.7/site-packages/markupsafe/_compat'
p1248
sg12
g13
(g14
g15
NtRp1249
(dp1250
g18
I1
sg19
I0
sg20
I14
sg21
I0
sg22
I0
sg23
I5
sg24
I0
sbssg25
S'\x99\x16\xdbp\x85/\x12e\xfa.\xcb\xca\xb3T\x01\xdd'
p1251
ssS'env_lib_python2_7_site-packages_sqlalchemy_sql_dml'
p1252
(dp1253
g6
(dp1254
g8
S'env_lib_python2_7_site-packages_sqlalchemy_sql_dml.html'
p1255
sg10
S'env/lib/python2.7/site-packages/sqlalchemy/sql/dml'
p1256
sg12
g13
(g14
g15
NtRp1257
(dp1258
g18
I1
sg19
I0
sg20
I153
sg21
I0
sg22
I0
sg23
I65
sg24
I0
sbssg25
S'e\xe7=\x15{el1\xddu\xef\xe6\x96S\x02:'
p1259
ssS'env_lib_python2_7_site-packages_sqlalchemy_orm_mapper'
p1260
(dp1261
g6
(dp1262
g8
S'env_lib_python2_7_site-packages_sqlalchemy_orm_mapper.html'
p1263
sg10
S'env/lib/python2.7/site-packages/sqlalchemy/orm/mapper'
p1264
sg12
g13
(g14
g15
NtRp1265
(dp1266
g18
I1
sg19
I0
sg20
I895
sg21
I0
sg22
I0
sg23
I424
sg24
I0
sbssg25
S'q\x82\xb8\xffR5\xf3\x94\xbc|4\xbe8\xf0S\xb1'
p1267
ssS'models'
p1268
(dp1269
g6
(dp1270
g8
S'models.html'
p1271
sg10
g1268
sg12
g13
(g14
g15
NtRp1272
(dp1273
g18
I1
sg19
I0
sg20
I33
sg21
I0
sg22
I0
sg23
I2
sg24
I0
sbssg25
S'g\xf7\xc7\xa1\xff\xc2\r\xdb\x13\xbb3,\x08w\x8cn'
p1274
ssS'env_lib_python2_7_site-packages_sqlalchemy_event_attr'
p1275
(dp1276
g6
(dp1277
g8
S'env_lib_python2_7_site-packages_sqlalchemy_event_attr.html'
p1278
sg10
S'env/lib/python2.7/site-packages/sqlalchemy/event/attr'
p1279
sg12
g13
(g14
g15
NtRp1280
(dp1281
g18
I1
sg19
I0
sg20
I213
sg21
I0
sg22
I0
sg23
I67
sg24
I0
sbssg25
S'\xf0MN\n\x12\x0e\xb4#\xbb\x02\xe6@OU.\xe8'
p1282
ssS'env_lib_python2_7_site-packages_flask_helpers'
p1283
(dp1284
g6
(dp1285
g8
S'env_lib_python2_7_site-packages_flask_helpers.html'
p1286
sg10
S'env/lib/python2.7/site-packages/flask/helpers'
p1287
sg12
g13
(g14
g15
NtRp1288
(dp1289
g18
I1
sg19
I0
sg20
I277
sg21
I0
sg22
I0
sg23
I153
sg24
I0
sbssg25
S'\xd8\x19?r|v\xc7\xd8\x15\x9a-\xce_\xc5\xc7\x07'
p1290
ssS'env_lib_python2_7_site-packages_werkzeug__compat'
p1291
(dp1292
g6
(dp1293
g8
S'env_lib_python2_7_site-packages_werkzeug__compat.html'
p1294
sg10
S'env/lib/python2.7/site-packages/werkzeug/_compat'
p1295
sg12
g13
(g14
g15
NtRp1296
(dp1297
g18
I1
sg19
I0
sg20
I146
sg21
I0
sg22
I0
sg23
I68
sg24
I0
sbssg25
S'\x8e\xd0P\xf8\xe8r\xe6\xaa\xd5EB\xa8\x02\xa2#d'
p1298
ssS'env_lib_python2_7_site-packages_sqlalchemy_log'
p1299
(dp1300
g6
(dp1301
g8
S'env_lib_python2_7_site-packages_sqlalchemy_log.html'
p1302
sg10
S'env/lib/python2.7/site-packages/sqlalchemy/log'
p1303
sg12
g13
(g14
g15
NtRp1304
(dp1305
g18
I1
sg19
I0
sg20
I79
sg21
I0
sg22
I0
sg23
I33
sg24
I0
sbssg25
S'\xce\xc5p\x9c\x1c_\x80#\x9d,\x86\x8a\x0c\xd7\x99d'
p1306
ssS'env_lib_python2_7_site-packages_flask_sqlalchemy___init__'
p1307
(dp1308
g6
(dp1309
g8
S'env_lib_python2_7_site-packages_flask_sqlalchemy___init__.html'
p1310
sg10
S'env/lib/python2.7/site-packages/flask_sqlalchemy/__init__'
p1311
sg12
g13
(g14
g15
NtRp1312
(dp1313
g18
I1
sg19
I0
sg20
I431
sg21
I0
sg22
I0
sg23
I109
sg24
I0
sbssg25
S'\xe50\x98\xcf\xb3\x06\xafh\x8a\x9e\r\xf5\xdag\x0e\xe4'
p1314
ssS'env_lib_python2_7_site-packages_sqlalchemy_orm_collections'
p1315
(dp1316
g6
(dp1317
g8
S'env_lib_python2_7_site-packages_sqlalchemy_orm_collections.html'
p1318
sg10
S'env/lib/python2.7/site-packages/sqlalchemy/orm/collections'
p1319
sg12
g13
(g14
g15
NtRp1320
(dp1321
g18
I1
sg19
I0
sg20
I691
sg21
I0
sg22
I0
sg23
I391
sg24
I0
sbssg25
S'l\xd5e\x88w\x06\x86>\xe0\xa5%M\x8bl\x0f\x93'
p1322
ssS'env_lib_python2_7_site-packages_sqlalchemy_sql_operators'
p1323
(dp1324
g6
(dp1325
g8
S'env_lib_python2_7_site-packages_sqlalchemy_sql_operators.html'
p1326
sg10
S'env/lib/python2.7/site-packages/sqlalchemy/sql/operators'
p1327
sg12
g13
(g14
g15
NtRp1328
(dp1329
g18
I1
sg19
I0
sg20
I199
sg21
I0
sg22
I0
sg23
I88
sg24
I0
sbssg25
S'\xdd\xa6\x0f-\x88/v\xa5FD@\xd6v)\xcas'
p1330
ssS'env_lib_python2_7_site-packages_jinja2_nodes'
p1331
(dp1332
g6
(dp1333
g8
S'env_lib_python2_7_site-packages_jinja2_nodes.html'
p1334
sg10
S'env/lib/python2.7/site-packages/jinja2/nodes'
p1335
sg12
g13
(g14
g15
NtRp1336
(dp1337
g18
I1
sg19
I0
sg20
I423
sg21
I0
sg22
I0
sg23
I153
sg24
I0
sbssg25
S'\xb6\xb6\xf0\x92\x15\xd0\xb2 \x0b"Y\x16\x8b\xef!\x99'
p1338
ssS'env_lib_python2_7_site-packages_jinja2_ext'
p1339
(dp1340
g6
(dp1341
g8
S'env_lib_python2_7_site-packages_jinja2_ext.html'
p1342
sg10
S'env/lib/python2.7/site-packages/jinja2/ext'
p1343
sg12
g13
(g14
g15
NtRp1344
(dp1345
g18
I1
sg19
I0
sg20
I305
sg21
I0
sg22
I0
sg23
I241
sg24
I0
sbssg25
S'\xf2\xe7\xbc,\x81\xdb\xc6\xee\x8f\xd3a\x1eGu\x19\x12'
p1346
ssS'env_lib_python2_7_site-packages_sqlalchemy_orm_exc'
p1347
(dp1348
g6
(dp1349
g8
S'env_lib_python2_7_site-packages_sqlalchemy_orm_exc.html'
p1350
sg10
S'env/lib/python2.7/site-packages/sqlalchemy/orm/exc'
p1351
sg12
g13
(g14
g15
NtRp1352
(dp1353
g18
I1
sg19
I0
sg20
I60
sg21
I0
sg22
I0
sg23
I35
sg24
I0
sbssg25
S'z\xfb\x01\x16F{\x8e\xf5\xb9X\xa2\xb2;\xb4)\x1c'
p1354
ssS'env_lib_python2_7_site-packages_sqlalchemy___init__'
p1355
(dp1356
g6
(dp1357
g8
S'env_lib_python2_7_site-packages_sqlalchemy___init__.html'
p1358
sg10
S'env/lib/python2.7/site-packages/sqlalchemy/__init__'
p1359
sg12
g13
(g14
g15
NtRp1360
(dp1361
g18
I1
sg19
I0
sg20
I13
sg21
I0
sg22
I0
sg23
I0
sg24
I0
sbssg25
S'\xfbUC\xff\xb0X\xa5\x08\x11I\x06\xfdF\xf3M\x01'
p1362
ssS'env_lib_python2_7_site-packages_jinja2_defaults'
p1363
(dp1364
g6
(dp1365
g8
S'env_lib_python2_7_site-packages_jinja2_defaults.html'
p1366
sg10
S'env/lib/python2.7/site-packages/jinja2/defaults'
p1367
sg12
g13
(g14
g15
NtRp1368
(dp1369
g18
I1
sg19
I0
sg20
I19
sg21
I0
sg22
I0
sg23
I0
sg24
I0
sbssg25
S'\xe2s1\x07\x11\xcc\xb8t@\xa5n<\x98\x97"j'
p1370
ssS'env_lib_python2_7_site-packages_sqlalchemy_orm_relationships'
p1371
(dp1372
g6
(dp1373
g8
S'env_lib_python2_7_site-packages_sqlalchemy_orm_relationships.html'
p1374
sg10
S'env/lib/python2.7/site-packages/sqlalchemy/orm/relationships'
p1375
sg12
g13
(g14
g15
NtRp1376
(dp1377
g18
I1
sg19
I0
sg20
I786
sg21
I0
sg22
I0
sg23
I371
sg24
I0
sbssg25
S')\xc9\x9di\x98\xf8n<}\xed\xc8"\xf63\xae\xbb'
p1378
ssS'env_lib_python2_7_site-packages_werkzeug_wsgi'
p1379
(dp1380
g6
(dp1381
g8
S'env_lib_python2_7_site-packages_werkzeug_wsgi.html'
p1382
sg10
S'env/lib/python2.7/site-packages/werkzeug/wsgi'
p1383
sg12
g13
(g14
g15
NtRp1384
(dp1385
g18
I1
sg19
I0
sg20
I449
sg21
I0
sg22
I0
sg23
I294
sg24
I0
sbssg25
S"\x15\xfbgO\x87\x8c\x81A'P>\xf9\\\xde6`"
p1386
sssS'version'
p1387
S'3.7.1'
p1388
sS'settings'
p1389
S'\x98\xa8x\xfe"r\xb5K\x98\xb1N\\\x99\x9e\xf3\xe5'
p1390
sS'format'
p1391
I1
s.